
ctarget:     file format elf64-x86-64


Disassembly of section .init:

0000000000401000 <_init>:
  401000:	48 83 ec 08          	sub    $0x8,%rsp
  401004:	48 8b 05 ed 4f 00 00 	mov    0x4fed(%rip),%rax        # 405ff8 <__gmon_start__>
  40100b:	48 85 c0             	test   %rax,%rax
  40100e:	74 02                	je     401012 <_init+0x12>
  401010:	ff d0                	callq  *%rax
  401012:	48 83 c4 08          	add    $0x8,%rsp
  401016:	c3                   	retq   

Disassembly of section .plt:

0000000000401020 <.plt>:
  401020:	ff 35 e2 4f 00 00    	pushq  0x4fe2(%rip)        # 406008 <_GLOBAL_OFFSET_TABLE_+0x8>
  401026:	ff 25 e4 4f 00 00    	jmpq   *0x4fe4(%rip)        # 406010 <_GLOBAL_OFFSET_TABLE_+0x10>
  40102c:	0f 1f 40 00          	nopl   0x0(%rax)

0000000000401030 <strcasecmp@plt>:
  401030:	ff 25 e2 4f 00 00    	jmpq   *0x4fe2(%rip)        # 406018 <strcasecmp@GLIBC_2.2.5>
  401036:	68 00 00 00 00       	pushq  $0x0
  40103b:	e9 e0 ff ff ff       	jmpq   401020 <.plt>

0000000000401040 <__errno_location@plt>:
  401040:	ff 25 da 4f 00 00    	jmpq   *0x4fda(%rip)        # 406020 <__errno_location@GLIBC_2.2.5>
  401046:	68 01 00 00 00       	pushq  $0x1
  40104b:	e9 d0 ff ff ff       	jmpq   401020 <.plt>

0000000000401050 <srandom@plt>:
  401050:	ff 25 d2 4f 00 00    	jmpq   *0x4fd2(%rip)        # 406028 <srandom@GLIBC_2.2.5>
  401056:	68 02 00 00 00       	pushq  $0x2
  40105b:	e9 c0 ff ff ff       	jmpq   401020 <.plt>

0000000000401060 <strncmp@plt>:
  401060:	ff 25 ca 4f 00 00    	jmpq   *0x4fca(%rip)        # 406030 <strncmp@GLIBC_2.2.5>
  401066:	68 03 00 00 00       	pushq  $0x3
  40106b:	e9 b0 ff ff ff       	jmpq   401020 <.plt>

0000000000401070 <strcpy@plt>:
  401070:	ff 25 c2 4f 00 00    	jmpq   *0x4fc2(%rip)        # 406038 <strcpy@GLIBC_2.2.5>
  401076:	68 04 00 00 00       	pushq  $0x4
  40107b:	e9 a0 ff ff ff       	jmpq   401020 <.plt>

0000000000401080 <puts@plt>:
  401080:	ff 25 ba 4f 00 00    	jmpq   *0x4fba(%rip)        # 406040 <puts@GLIBC_2.2.5>
  401086:	68 05 00 00 00       	pushq  $0x5
  40108b:	e9 90 ff ff ff       	jmpq   401020 <.plt>

0000000000401090 <write@plt>:
  401090:	ff 25 b2 4f 00 00    	jmpq   *0x4fb2(%rip)        # 406048 <write@GLIBC_2.2.5>
  401096:	68 06 00 00 00       	pushq  $0x6
  40109b:	e9 80 ff ff ff       	jmpq   401020 <.plt>

00000000004010a0 <strlen@plt>:
  4010a0:	ff 25 aa 4f 00 00    	jmpq   *0x4faa(%rip)        # 406050 <strlen@GLIBC_2.2.5>
  4010a6:	68 07 00 00 00       	pushq  $0x7
  4010ab:	e9 70 ff ff ff       	jmpq   401020 <.plt>

00000000004010b0 <mmap@plt>:
  4010b0:	ff 25 a2 4f 00 00    	jmpq   *0x4fa2(%rip)        # 406058 <mmap@GLIBC_2.2.5>
  4010b6:	68 08 00 00 00       	pushq  $0x8
  4010bb:	e9 60 ff ff ff       	jmpq   401020 <.plt>

00000000004010c0 <printf@plt>:
  4010c0:	ff 25 9a 4f 00 00    	jmpq   *0x4f9a(%rip)        # 406060 <printf@GLIBC_2.2.5>
  4010c6:	68 09 00 00 00       	pushq  $0x9
  4010cb:	e9 50 ff ff ff       	jmpq   401020 <.plt>

00000000004010d0 <memset@plt>:
  4010d0:	ff 25 92 4f 00 00    	jmpq   *0x4f92(%rip)        # 406068 <memset@GLIBC_2.2.5>
  4010d6:	68 0a 00 00 00       	pushq  $0xa
  4010db:	e9 40 ff ff ff       	jmpq   401020 <.plt>

00000000004010e0 <alarm@plt>:
  4010e0:	ff 25 8a 4f 00 00    	jmpq   *0x4f8a(%rip)        # 406070 <alarm@GLIBC_2.2.5>
  4010e6:	68 0b 00 00 00       	pushq  $0xb
  4010eb:	e9 30 ff ff ff       	jmpq   401020 <.plt>

00000000004010f0 <close@plt>:
  4010f0:	ff 25 82 4f 00 00    	jmpq   *0x4f82(%rip)        # 406078 <close@GLIBC_2.2.5>
  4010f6:	68 0c 00 00 00       	pushq  $0xc
  4010fb:	e9 20 ff ff ff       	jmpq   401020 <.plt>

0000000000401100 <read@plt>:
  401100:	ff 25 7a 4f 00 00    	jmpq   *0x4f7a(%rip)        # 406080 <read@GLIBC_2.2.5>
  401106:	68 0d 00 00 00       	pushq  $0xd
  40110b:	e9 10 ff ff ff       	jmpq   401020 <.plt>

0000000000401110 <signal@plt>:
  401110:	ff 25 72 4f 00 00    	jmpq   *0x4f72(%rip)        # 406088 <signal@GLIBC_2.2.5>
  401116:	68 0e 00 00 00       	pushq  $0xe
  40111b:	e9 00 ff ff ff       	jmpq   401020 <.plt>

0000000000401120 <gethostbyname@plt>:
  401120:	ff 25 6a 4f 00 00    	jmpq   *0x4f6a(%rip)        # 406090 <gethostbyname@GLIBC_2.2.5>
  401126:	68 0f 00 00 00       	pushq  $0xf
  40112b:	e9 f0 fe ff ff       	jmpq   401020 <.plt>

0000000000401130 <fprintf@plt>:
  401130:	ff 25 62 4f 00 00    	jmpq   *0x4f62(%rip)        # 406098 <fprintf@GLIBC_2.2.5>
  401136:	68 10 00 00 00       	pushq  $0x10
  40113b:	e9 e0 fe ff ff       	jmpq   401020 <.plt>

0000000000401140 <strtol@plt>:
  401140:	ff 25 5a 4f 00 00    	jmpq   *0x4f5a(%rip)        # 4060a0 <strtol@GLIBC_2.2.5>
  401146:	68 11 00 00 00       	pushq  $0x11
  40114b:	e9 d0 fe ff ff       	jmpq   401020 <.plt>

0000000000401150 <memcpy@plt>:
  401150:	ff 25 52 4f 00 00    	jmpq   *0x4f52(%rip)        # 4060a8 <memcpy@GLIBC_2.14>
  401156:	68 12 00 00 00       	pushq  $0x12
  40115b:	e9 c0 fe ff ff       	jmpq   401020 <.plt>

0000000000401160 <time@plt>:
  401160:	ff 25 4a 4f 00 00    	jmpq   *0x4f4a(%rip)        # 4060b0 <time@GLIBC_2.2.5>
  401166:	68 13 00 00 00       	pushq  $0x13
  40116b:	e9 b0 fe ff ff       	jmpq   401020 <.plt>

0000000000401170 <random@plt>:
  401170:	ff 25 42 4f 00 00    	jmpq   *0x4f42(%rip)        # 4060b8 <random@GLIBC_2.2.5>
  401176:	68 14 00 00 00       	pushq  $0x14
  40117b:	e9 a0 fe ff ff       	jmpq   401020 <.plt>

0000000000401180 <__isoc99_sscanf@plt>:
  401180:	ff 25 3a 4f 00 00    	jmpq   *0x4f3a(%rip)        # 4060c0 <__isoc99_sscanf@GLIBC_2.7>
  401186:	68 15 00 00 00       	pushq  $0x15
  40118b:	e9 90 fe ff ff       	jmpq   401020 <.plt>

0000000000401190 <munmap@plt>:
  401190:	ff 25 32 4f 00 00    	jmpq   *0x4f32(%rip)        # 4060c8 <munmap@GLIBC_2.2.5>
  401196:	68 16 00 00 00       	pushq  $0x16
  40119b:	e9 80 fe ff ff       	jmpq   401020 <.plt>

00000000004011a0 <memmove@plt>:
  4011a0:	ff 25 2a 4f 00 00    	jmpq   *0x4f2a(%rip)        # 4060d0 <memmove@GLIBC_2.2.5>
  4011a6:	68 17 00 00 00       	pushq  $0x17
  4011ab:	e9 70 fe ff ff       	jmpq   401020 <.plt>

00000000004011b0 <fopen@plt>:
  4011b0:	ff 25 22 4f 00 00    	jmpq   *0x4f22(%rip)        # 4060d8 <fopen@GLIBC_2.2.5>
  4011b6:	68 18 00 00 00       	pushq  $0x18
  4011bb:	e9 60 fe ff ff       	jmpq   401020 <.plt>

00000000004011c0 <getopt@plt>:
  4011c0:	ff 25 1a 4f 00 00    	jmpq   *0x4f1a(%rip)        # 4060e0 <getopt@GLIBC_2.2.5>
  4011c6:	68 19 00 00 00       	pushq  $0x19
  4011cb:	e9 50 fe ff ff       	jmpq   401020 <.plt>

00000000004011d0 <strtoul@plt>:
  4011d0:	ff 25 12 4f 00 00    	jmpq   *0x4f12(%rip)        # 4060e8 <strtoul@GLIBC_2.2.5>
  4011d6:	68 1a 00 00 00       	pushq  $0x1a
  4011db:	e9 40 fe ff ff       	jmpq   401020 <.plt>

00000000004011e0 <gethostname@plt>:
  4011e0:	ff 25 0a 4f 00 00    	jmpq   *0x4f0a(%rip)        # 4060f0 <gethostname@GLIBC_2.2.5>
  4011e6:	68 1b 00 00 00       	pushq  $0x1b
  4011eb:	e9 30 fe ff ff       	jmpq   401020 <.plt>

00000000004011f0 <sprintf@plt>:
  4011f0:	ff 25 02 4f 00 00    	jmpq   *0x4f02(%rip)        # 4060f8 <sprintf@GLIBC_2.2.5>
  4011f6:	68 1c 00 00 00       	pushq  $0x1c
  4011fb:	e9 20 fe ff ff       	jmpq   401020 <.plt>

0000000000401200 <exit@plt>:
  401200:	ff 25 fa 4e 00 00    	jmpq   *0x4efa(%rip)        # 406100 <exit@GLIBC_2.2.5>
  401206:	68 1d 00 00 00       	pushq  $0x1d
  40120b:	e9 10 fe ff ff       	jmpq   401020 <.plt>

0000000000401210 <connect@plt>:
  401210:	ff 25 f2 4e 00 00    	jmpq   *0x4ef2(%rip)        # 406108 <connect@GLIBC_2.2.5>
  401216:	68 1e 00 00 00       	pushq  $0x1e
  40121b:	e9 00 fe ff ff       	jmpq   401020 <.plt>

0000000000401220 <getc@plt>:
  401220:	ff 25 ea 4e 00 00    	jmpq   *0x4eea(%rip)        # 406110 <getc@GLIBC_2.2.5>
  401226:	68 1f 00 00 00       	pushq  $0x1f
  40122b:	e9 f0 fd ff ff       	jmpq   401020 <.plt>

0000000000401230 <socket@plt>:
  401230:	ff 25 e2 4e 00 00    	jmpq   *0x4ee2(%rip)        # 406118 <socket@GLIBC_2.2.5>
  401236:	68 20 00 00 00       	pushq  $0x20
  40123b:	e9 e0 fd ff ff       	jmpq   401020 <.plt>

Disassembly of section .text:

0000000000401240 <_start>:
  401240:	31 ed                	xor    %ebp,%ebp
  401242:	49 89 d1             	mov    %rdx,%r9
  401245:	5e                   	pop    %rsi
  401246:	48 89 e2             	mov    %rsp,%rdx
  401249:	48 83 e4 f0          	and    $0xfffffffffffffff0,%rsp
  40124d:	50                   	push   %rax
  40124e:	54                   	push   %rsp
  40124f:	49 c7 c0 70 2f 40 00 	mov    $0x402f70,%r8
  401256:	48 c7 c1 10 2f 40 00 	mov    $0x402f10,%rcx
  40125d:	48 c7 c7 08 15 40 00 	mov    $0x401508,%rdi
  401264:	ff 15 86 4d 00 00    	callq  *0x4d86(%rip)        # 405ff0 <__libc_start_main@GLIBC_2.2.5>
  40126a:	f4                   	hlt    
  40126b:	0f 1f 44 00 00       	nopl   0x0(%rax,%rax,1)

0000000000401270 <_dl_relocate_static_pie>:
  401270:	c3                   	retq   
  401271:	66 2e 0f 1f 84 00 00 	nopw   %cs:0x0(%rax,%rax,1)
  401278:	00 00 00 
  40127b:	0f 1f 44 00 00       	nopl   0x0(%rax,%rax,1)

0000000000401280 <deregister_tm_clones>:
  401280:	b8 90 64 40 00       	mov    $0x406490,%eax
  401285:	48 3d 90 64 40 00    	cmp    $0x406490,%rax
  40128b:	74 13                	je     4012a0 <deregister_tm_clones+0x20>
  40128d:	b8 00 00 00 00       	mov    $0x0,%eax
  401292:	48 85 c0             	test   %rax,%rax
  401295:	74 09                	je     4012a0 <deregister_tm_clones+0x20>
  401297:	bf 90 64 40 00       	mov    $0x406490,%edi
  40129c:	ff e0                	jmpq   *%rax
  40129e:	66 90                	xchg   %ax,%ax
  4012a0:	c3                   	retq   
  4012a1:	66 66 2e 0f 1f 84 00 	data16 nopw %cs:0x0(%rax,%rax,1)
  4012a8:	00 00 00 00 
  4012ac:	0f 1f 40 00          	nopl   0x0(%rax)

00000000004012b0 <register_tm_clones>:
  4012b0:	be 90 64 40 00       	mov    $0x406490,%esi
  4012b5:	48 81 ee 90 64 40 00 	sub    $0x406490,%rsi
  4012bc:	48 89 f0             	mov    %rsi,%rax
  4012bf:	48 c1 ee 3f          	shr    $0x3f,%rsi
  4012c3:	48 c1 f8 03          	sar    $0x3,%rax
  4012c7:	48 01 c6             	add    %rax,%rsi
  4012ca:	48 d1 fe             	sar    %rsi
  4012cd:	74 11                	je     4012e0 <register_tm_clones+0x30>
  4012cf:	b8 00 00 00 00       	mov    $0x0,%eax
  4012d4:	48 85 c0             	test   %rax,%rax
  4012d7:	74 07                	je     4012e0 <register_tm_clones+0x30>
  4012d9:	bf 90 64 40 00       	mov    $0x406490,%edi
  4012de:	ff e0                	jmpq   *%rax
  4012e0:	c3                   	retq   
  4012e1:	66 66 2e 0f 1f 84 00 	data16 nopw %cs:0x0(%rax,%rax,1)
  4012e8:	00 00 00 00 
  4012ec:	0f 1f 40 00          	nopl   0x0(%rax)

00000000004012f0 <__do_global_dtors_aux>:
  4012f0:	80 3d f1 51 00 00 00 	cmpb   $0x0,0x51f1(%rip)        # 4064e8 <completed.0>
  4012f7:	75 17                	jne    401310 <__do_global_dtors_aux+0x20>
  4012f9:	55                   	push   %rbp
  4012fa:	48 89 e5             	mov    %rsp,%rbp
  4012fd:	e8 7e ff ff ff       	callq  401280 <deregister_tm_clones>
  401302:	c6 05 df 51 00 00 01 	movb   $0x1,0x51df(%rip)        # 4064e8 <completed.0>
  401309:	5d                   	pop    %rbp
  40130a:	c3                   	retq   
  40130b:	0f 1f 44 00 00       	nopl   0x0(%rax,%rax,1)
  401310:	c3                   	retq   
  401311:	66 66 2e 0f 1f 84 00 	data16 nopw %cs:0x0(%rax,%rax,1)
  401318:	00 00 00 00 
  40131c:	0f 1f 40 00          	nopl   0x0(%rax)

0000000000401320 <frame_dummy>:
  401320:	eb 8e                	jmp    4012b0 <register_tm_clones>

0000000000401322 <usage>:
  401322:	48 83 ec 08          	sub    $0x8,%rsp
  401326:	48 89 fe             	mov    %rdi,%rsi
  401329:	83 3d 08 52 00 00 00 	cmpl   $0x0,0x5208(%rip)        # 406538 <is_checker>
  401330:	74 4b                	je     40137d <usage+0x5b>
  401332:	48 8d 3d cf 1c 00 00 	lea    0x1ccf(%rip),%rdi        # 403008 <_IO_stdin_used+0x8>
  401339:	b8 00 00 00 00       	mov    $0x0,%eax
  40133e:	e8 7d fd ff ff       	callq  4010c0 <printf@plt>
  401343:	48 8d 3d f6 1c 00 00 	lea    0x1cf6(%rip),%rdi        # 403040 <_IO_stdin_used+0x40>
  40134a:	e8 31 fd ff ff       	callq  401080 <puts@plt>
  40134f:	48 8d 3d 62 1e 00 00 	lea    0x1e62(%rip),%rdi        # 4031b8 <_IO_stdin_used+0x1b8>
  401356:	e8 25 fd ff ff       	callq  401080 <puts@plt>
  40135b:	48 8d 3d 06 1d 00 00 	lea    0x1d06(%rip),%rdi        # 403068 <_IO_stdin_used+0x68>
  401362:	e8 19 fd ff ff       	callq  401080 <puts@plt>
  401367:	48 8d 3d 64 1e 00 00 	lea    0x1e64(%rip),%rdi        # 4031d2 <_IO_stdin_used+0x1d2>
  40136e:	e8 0d fd ff ff       	callq  401080 <puts@plt>
  401373:	bf 00 00 00 00       	mov    $0x0,%edi
  401378:	e8 83 fe ff ff       	callq  401200 <exit@plt>
  40137d:	48 8d 3d 6a 1e 00 00 	lea    0x1e6a(%rip),%rdi        # 4031ee <_IO_stdin_used+0x1ee>
  401384:	b8 00 00 00 00       	mov    $0x0,%eax
  401389:	e8 32 fd ff ff       	callq  4010c0 <printf@plt>
  40138e:	48 8d 3d fb 1c 00 00 	lea    0x1cfb(%rip),%rdi        # 403090 <_IO_stdin_used+0x90>
  401395:	e8 e6 fc ff ff       	callq  401080 <puts@plt>
  40139a:	48 8d 3d 17 1d 00 00 	lea    0x1d17(%rip),%rdi        # 4030b8 <_IO_stdin_used+0xb8>
  4013a1:	e8 da fc ff ff       	callq  401080 <puts@plt>
  4013a6:	48 8d 3d 5f 1e 00 00 	lea    0x1e5f(%rip),%rdi        # 40320c <_IO_stdin_used+0x20c>
  4013ad:	e8 ce fc ff ff       	callq  401080 <puts@plt>
  4013b2:	eb bf                	jmp    401373 <usage+0x51>

00000000004013b4 <initialize_target>:
  4013b4:	55                   	push   %rbp
  4013b5:	53                   	push   %rbx
  4013b6:	48 81 ec 08 21 00 00 	sub    $0x2108,%rsp
  4013bd:	89 f5                	mov    %esi,%ebp
  4013bf:	89 3d 63 51 00 00    	mov    %edi,0x5163(%rip)        # 406528 <check_level>
  4013c5:	8b 3d 65 4d 00 00    	mov    0x4d65(%rip),%edi        # 406130 <target_id>
  4013cb:	e8 1e 1b 00 00       	callq  402eee <gencookie>
  4013d0:	89 c7                	mov    %eax,%edi
  4013d2:	89 05 5c 51 00 00    	mov    %eax,0x515c(%rip)        # 406534 <cookie>
  4013d8:	e8 11 1b 00 00       	callq  402eee <gencookie>
  4013dd:	89 05 4d 51 00 00    	mov    %eax,0x514d(%rip)        # 406530 <authkey>
  4013e3:	8b 05 47 4d 00 00    	mov    0x4d47(%rip),%eax        # 406130 <target_id>
  4013e9:	8d 78 01             	lea    0x1(%rax),%edi
  4013ec:	e8 5f fc ff ff       	callq  401050 <srandom@plt>
  4013f1:	e8 7a fd ff ff       	callq  401170 <random@plt>
  4013f6:	48 89 c7             	mov    %rax,%rdi
  4013f9:	e8 df 02 00 00       	callq  4016dd <scramble>
  4013fe:	89 c3                	mov    %eax,%ebx
  401400:	85 ed                	test   %ebp,%ebp
  401402:	75 3d                	jne    401441 <initialize_target+0x8d>
  401404:	b8 00 00 00 00       	mov    $0x0,%eax
  401409:	01 d8                	add    %ebx,%eax
  40140b:	0f b7 c0             	movzwl %ax,%eax
  40140e:	8d 04 c5 00 01 00 00 	lea    0x100(,%rax,8),%eax
  401415:	89 c0                	mov    %eax,%eax
  401417:	48 89 05 6a 50 00 00 	mov    %rax,0x506a(%rip)        # 406488 <buf_offset>
  40141e:	c6 05 ff 50 00 00 63 	movb   $0x63,0x50ff(%rip)        # 406524 <target_prefix>
  401425:	83 3d f4 50 00 00 00 	cmpl   $0x0,0x50f4(%rip)        # 406520 <notify>
  40142c:	74 09                	je     401437 <initialize_target+0x83>
  40142e:	83 3d 03 51 00 00 00 	cmpl   $0x0,0x5103(%rip)        # 406538 <is_checker>
  401435:	74 23                	je     40145a <initialize_target+0xa6>
  401437:	48 81 c4 08 21 00 00 	add    $0x2108,%rsp
  40143e:	5b                   	pop    %rbx
  40143f:	5d                   	pop    %rbp
  401440:	c3                   	retq   
  401441:	bf 00 00 00 00       	mov    $0x0,%edi
  401446:	e8 15 fd ff ff       	callq  401160 <time@plt>
  40144b:	48 89 c7             	mov    %rax,%rdi
  40144e:	e8 fd fb ff ff       	callq  401050 <srandom@plt>
  401453:	e8 18 fd ff ff       	callq  401170 <random@plt>
  401458:	eb af                	jmp    401409 <initialize_target+0x55>
  40145a:	48 89 e7             	mov    %rsp,%rdi
  40145d:	be 00 01 00 00       	mov    $0x100,%esi
  401462:	e8 79 fd ff ff       	callq  4011e0 <gethostname@plt>
  401467:	89 c5                	mov    %eax,%ebp
  401469:	85 c0                	test   %eax,%eax
  40146b:	75 26                	jne    401493 <initialize_target+0xdf>
  40146d:	89 c3                	mov    %eax,%ebx
  40146f:	48 63 c3             	movslq %ebx,%rax
  401472:	48 8d 15 e7 4c 00 00 	lea    0x4ce7(%rip),%rdx        # 406160 <host_table>
  401479:	48 8b 3c c2          	mov    (%rdx,%rax,8),%rdi
  40147d:	48 85 ff             	test   %rdi,%rdi
  401480:	74 2c                	je     4014ae <initialize_target+0xfa>
  401482:	48 89 e6             	mov    %rsp,%rsi
  401485:	e8 a6 fb ff ff       	callq  401030 <strcasecmp@plt>
  40148a:	85 c0                	test   %eax,%eax
  40148c:	74 1b                	je     4014a9 <initialize_target+0xf5>
  40148e:	83 c3 01             	add    $0x1,%ebx
  401491:	eb dc                	jmp    40146f <initialize_target+0xbb>
  401493:	48 8d 3d 4e 1c 00 00 	lea    0x1c4e(%rip),%rdi        # 4030e8 <_IO_stdin_used+0xe8>
  40149a:	e8 e1 fb ff ff       	callq  401080 <puts@plt>
  40149f:	bf 08 00 00 00       	mov    $0x8,%edi
  4014a4:	e8 57 fd ff ff       	callq  401200 <exit@plt>
  4014a9:	bd 01 00 00 00       	mov    $0x1,%ebp
  4014ae:	85 ed                	test   %ebp,%ebp
  4014b0:	74 38                	je     4014ea <initialize_target+0x136>
  4014b2:	48 8d bc 24 00 01 00 	lea    0x100(%rsp),%rdi
  4014b9:	00 
  4014ba:	e8 89 17 00 00       	callq  402c48 <init_driver>
  4014bf:	85 c0                	test   %eax,%eax
  4014c1:	0f 89 70 ff ff ff    	jns    401437 <initialize_target+0x83>
  4014c7:	48 8d b4 24 00 01 00 	lea    0x100(%rsp),%rsi
  4014ce:	00 
  4014cf:	48 8d 3d 8a 1c 00 00 	lea    0x1c8a(%rip),%rdi        # 403160 <_IO_stdin_used+0x160>
  4014d6:	b8 00 00 00 00       	mov    $0x0,%eax
  4014db:	e8 e0 fb ff ff       	callq  4010c0 <printf@plt>
  4014e0:	bf 08 00 00 00       	mov    $0x8,%edi
  4014e5:	e8 16 fd ff ff       	callq  401200 <exit@plt>
  4014ea:	48 89 e6             	mov    %rsp,%rsi
  4014ed:	48 8d 3d 2c 1c 00 00 	lea    0x1c2c(%rip),%rdi        # 403120 <_IO_stdin_used+0x120>
  4014f4:	b8 00 00 00 00       	mov    $0x0,%eax
  4014f9:	e8 c2 fb ff ff       	callq  4010c0 <printf@plt>
  4014fe:	bf 08 00 00 00       	mov    $0x8,%edi
  401503:	e8 f8 fc ff ff       	callq  401200 <exit@plt>

0000000000401508 <main>:
  401508:	41 56                	push   %r14
  40150a:	41 55                	push   %r13
  40150c:	41 54                	push   %r12
  40150e:	55                   	push   %rbp
  40150f:	53                   	push   %rbx
  401510:	89 fd                	mov    %edi,%ebp
  401512:	48 89 f3             	mov    %rsi,%rbx
  401515:	48 c7 c6 5a 20 40 00 	mov    $0x40205a,%rsi
  40151c:	bf 0b 00 00 00       	mov    $0xb,%edi
  401521:	e8 ea fb ff ff       	callq  401110 <signal@plt>
  401526:	48 c7 c6 06 20 40 00 	mov    $0x402006,%rsi
  40152d:	bf 07 00 00 00       	mov    $0x7,%edi
  401532:	e8 d9 fb ff ff       	callq  401110 <signal@plt>
  401537:	48 c7 c6 ae 20 40 00 	mov    $0x4020ae,%rsi
  40153e:	bf 04 00 00 00       	mov    $0x4,%edi
  401543:	e8 c8 fb ff ff       	callq  401110 <signal@plt>
  401548:	83 3d e9 4f 00 00 00 	cmpl   $0x0,0x4fe9(%rip)        # 406538 <is_checker>
  40154f:	75 26                	jne    401577 <main+0x6f>
  401551:	4c 8d 25 d5 1c 00 00 	lea    0x1cd5(%rip),%r12        # 40322d <_IO_stdin_used+0x22d>
  401558:	48 8b 05 41 4f 00 00 	mov    0x4f41(%rip),%rax        # 4064a0 <stdin@@GLIBC_2.2.5>
  40155f:	48 89 05 b2 4f 00 00 	mov    %rax,0x4fb2(%rip)        # 406518 <infile>
  401566:	41 bd 00 00 00 00    	mov    $0x0,%r13d
  40156c:	41 be 00 00 00 00    	mov    $0x0,%r14d
  401572:	e9 88 00 00 00       	jmpq   4015ff <main+0xf7>
  401577:	48 c7 c6 02 21 40 00 	mov    $0x402102,%rsi
  40157e:	bf 0e 00 00 00       	mov    $0xe,%edi
  401583:	e8 88 fb ff ff       	callq  401110 <signal@plt>
  401588:	bf 05 00 00 00       	mov    $0x5,%edi
  40158d:	e8 4e fb ff ff       	callq  4010e0 <alarm@plt>
  401592:	4c 8d 25 8c 1c 00 00 	lea    0x1c8c(%rip),%r12        # 403225 <_IO_stdin_used+0x225>
  401599:	eb bd                	jmp    401558 <main+0x50>
  40159b:	48 8b 3b             	mov    (%rbx),%rdi
  40159e:	e8 7f fd ff ff       	callq  401322 <usage>
  4015a3:	48 8d 35 c8 1e 00 00 	lea    0x1ec8(%rip),%rsi        # 403472 <_IO_stdin_used+0x472>
  4015aa:	48 8b 3d 0f 4f 00 00 	mov    0x4f0f(%rip),%rdi        # 4064c0 <optarg@@GLIBC_2.2.5>
  4015b1:	e8 fa fb ff ff       	callq  4011b0 <fopen@plt>
  4015b6:	48 89 05 5b 4f 00 00 	mov    %rax,0x4f5b(%rip)        # 406518 <infile>
  4015bd:	48 85 c0             	test   %rax,%rax
  4015c0:	75 3d                	jne    4015ff <main+0xf7>
  4015c2:	48 8b 15 f7 4e 00 00 	mov    0x4ef7(%rip),%rdx        # 4064c0 <optarg@@GLIBC_2.2.5>
  4015c9:	48 8d 35 62 1c 00 00 	lea    0x1c62(%rip),%rsi        # 403232 <_IO_stdin_used+0x232>
  4015d0:	48 8b 3d 09 4f 00 00 	mov    0x4f09(%rip),%rdi        # 4064e0 <stderr@@GLIBC_2.2.5>
  4015d7:	e8 54 fb ff ff       	callq  401130 <fprintf@plt>
  4015dc:	b8 01 00 00 00       	mov    $0x1,%eax
  4015e1:	e9 ce 00 00 00       	jmpq   4016b4 <main+0x1ac>
  4015e6:	ba 10 00 00 00       	mov    $0x10,%edx
  4015eb:	be 00 00 00 00       	mov    $0x0,%esi
  4015f0:	48 8b 3d c9 4e 00 00 	mov    0x4ec9(%rip),%rdi        # 4064c0 <optarg@@GLIBC_2.2.5>
  4015f7:	e8 d4 fb ff ff       	callq  4011d0 <strtoul@plt>
  4015fc:	41 89 c6             	mov    %eax,%r14d
  4015ff:	4c 89 e2             	mov    %r12,%rdx
  401602:	48 89 de             	mov    %rbx,%rsi
  401605:	89 ef                	mov    %ebp,%edi
  401607:	e8 b4 fb ff ff       	callq  4011c0 <getopt@plt>
  40160c:	3c ff                	cmp    $0xff,%al
  40160e:	74 5d                	je     40166d <main+0x165>
  401610:	0f be f0             	movsbl %al,%esi
  401613:	83 e8 61             	sub    $0x61,%eax
  401616:	3c 10                	cmp    $0x10,%al
  401618:	77 3a                	ja     401654 <main+0x14c>
  40161a:	0f b6 c0             	movzbl %al,%eax
  40161d:	48 8d 15 4c 1c 00 00 	lea    0x1c4c(%rip),%rdx        # 403270 <_IO_stdin_used+0x270>
  401624:	48 63 04 82          	movslq (%rdx,%rax,4),%rax
  401628:	48 01 d0             	add    %rdx,%rax
  40162b:	ff e0                	jmpq   *%rax
  40162d:	ba 0a 00 00 00       	mov    $0xa,%edx
  401632:	be 00 00 00 00       	mov    $0x0,%esi
  401637:	48 8b 3d 82 4e 00 00 	mov    0x4e82(%rip),%rdi        # 4064c0 <optarg@@GLIBC_2.2.5>
  40163e:	e8 fd fa ff ff       	callq  401140 <strtol@plt>
  401643:	41 89 c5             	mov    %eax,%r13d
  401646:	eb b7                	jmp    4015ff <main+0xf7>
  401648:	c7 05 ce 4e 00 00 00 	movl   $0x0,0x4ece(%rip)        # 406520 <notify>
  40164f:	00 00 00 
  401652:	eb ab                	jmp    4015ff <main+0xf7>
  401654:	48 8d 3d f4 1b 00 00 	lea    0x1bf4(%rip),%rdi        # 40324f <_IO_stdin_used+0x24f>
  40165b:	b8 00 00 00 00       	mov    $0x0,%eax
  401660:	e8 5b fa ff ff       	callq  4010c0 <printf@plt>
  401665:	48 8b 3b             	mov    (%rbx),%rdi
  401668:	e8 b5 fc ff ff       	callq  401322 <usage>
  40166d:	be 00 00 00 00       	mov    $0x0,%esi
  401672:	44 89 ef             	mov    %r13d,%edi
  401675:	e8 3a fd ff ff       	callq  4013b4 <initialize_target>
  40167a:	83 3d b7 4e 00 00 00 	cmpl   $0x0,0x4eb7(%rip)        # 406538 <is_checker>
  401681:	74 09                	je     40168c <main+0x184>
  401683:	44 39 35 a6 4e 00 00 	cmp    %r14d,0x4ea6(%rip)        # 406530 <authkey>
  40168a:	75 31                	jne    4016bd <main+0x1b5>
  40168c:	8b 35 a2 4e 00 00    	mov    0x4ea2(%rip),%esi        # 406534 <cookie>
  401692:	48 8d 3d c9 1b 00 00 	lea    0x1bc9(%rip),%rdi        # 403262 <_IO_stdin_used+0x262>
  401699:	b8 00 00 00 00       	mov    $0x0,%eax
  40169e:	e8 1d fa ff ff       	callq  4010c0 <printf@plt>
  4016a3:	48 8b 3d de 4d 00 00 	mov    0x4dde(%rip),%rdi        # 406488 <buf_offset>
  4016aa:	e8 2e 0b 00 00       	callq  4021dd <stable_launch>
  4016af:	b8 00 00 00 00       	mov    $0x0,%eax
  4016b4:	5b                   	pop    %rbx
  4016b5:	5d                   	pop    %rbp
  4016b6:	41 5c                	pop    %r12
  4016b8:	41 5d                	pop    %r13
  4016ba:	41 5e                	pop    %r14
  4016bc:	c3                   	retq   
  4016bd:	44 89 f6             	mov    %r14d,%esi
  4016c0:	48 8d 3d c1 1a 00 00 	lea    0x1ac1(%rip),%rdi        # 403188 <_IO_stdin_used+0x188>
  4016c7:	b8 00 00 00 00       	mov    $0x0,%eax
  4016cc:	e8 ef f9 ff ff       	callq  4010c0 <printf@plt>
  4016d1:	b8 00 00 00 00       	mov    $0x0,%eax
  4016d6:	e8 18 07 00 00       	callq  401df3 <check_fail>
  4016db:	eb af                	jmp    40168c <main+0x184>

00000000004016dd <scramble>:
  4016dd:	b8 00 00 00 00       	mov    $0x0,%eax
  4016e2:	eb 11                	jmp    4016f5 <scramble+0x18>
  4016e4:	69 d0 47 a8 00 00    	imul   $0xa847,%eax,%edx
  4016ea:	01 fa                	add    %edi,%edx
  4016ec:	89 c1                	mov    %eax,%ecx
  4016ee:	89 54 8c d0          	mov    %edx,-0x30(%rsp,%rcx,4)
  4016f2:	83 c0 01             	add    $0x1,%eax
  4016f5:	83 f8 09             	cmp    $0x9,%eax
  4016f8:	76 ea                	jbe    4016e4 <scramble+0x7>
  4016fa:	8b 44 24 f0          	mov    -0x10(%rsp),%eax
  4016fe:	69 c0 0a 80 00 00    	imul   $0x800a,%eax,%eax
  401704:	89 44 24 f0          	mov    %eax,-0x10(%rsp)
  401708:	8b 44 24 d0          	mov    -0x30(%rsp),%eax
  40170c:	69 c0 2a 37 00 00    	imul   $0x372a,%eax,%eax
  401712:	89 44 24 d0          	mov    %eax,-0x30(%rsp)
  401716:	8b 44 24 e8          	mov    -0x18(%rsp),%eax
  40171a:	69 c0 d9 7a 00 00    	imul   $0x7ad9,%eax,%eax
  401720:	89 44 24 e8          	mov    %eax,-0x18(%rsp)
  401724:	8b 44 24 d0          	mov    -0x30(%rsp),%eax
  401728:	69 c0 1c a3 00 00    	imul   $0xa31c,%eax,%eax
  40172e:	89 44 24 d0          	mov    %eax,-0x30(%rsp)
  401732:	8b 44 24 ec          	mov    -0x14(%rsp),%eax
  401736:	69 c0 63 e3 00 00    	imul   $0xe363,%eax,%eax
  40173c:	89 44 24 ec          	mov    %eax,-0x14(%rsp)
  401740:	8b 44 24 f0          	mov    -0x10(%rsp),%eax
  401744:	69 c0 e3 df 00 00    	imul   $0xdfe3,%eax,%eax
  40174a:	89 44 24 f0          	mov    %eax,-0x10(%rsp)
  40174e:	8b 44 24 e0          	mov    -0x20(%rsp),%eax
  401752:	69 c0 ae 12 00 00    	imul   $0x12ae,%eax,%eax
  401758:	89 44 24 e0          	mov    %eax,-0x20(%rsp)
  40175c:	8b 44 24 e4          	mov    -0x1c(%rsp),%eax
  401760:	69 c0 54 19 00 00    	imul   $0x1954,%eax,%eax
  401766:	89 44 24 e4          	mov    %eax,-0x1c(%rsp)
  40176a:	8b 44 24 d8          	mov    -0x28(%rsp),%eax
  40176e:	69 c0 41 ea 00 00    	imul   $0xea41,%eax,%eax
  401774:	89 44 24 d8          	mov    %eax,-0x28(%rsp)
  401778:	8b 44 24 d4          	mov    -0x2c(%rsp),%eax
  40177c:	69 c0 ad dd 00 00    	imul   $0xddad,%eax,%eax
  401782:	89 44 24 d4          	mov    %eax,-0x2c(%rsp)
  401786:	8b 44 24 dc          	mov    -0x24(%rsp),%eax
  40178a:	69 c0 08 04 00 00    	imul   $0x408,%eax,%eax
  401790:	89 44 24 dc          	mov    %eax,-0x24(%rsp)
  401794:	8b 44 24 e0          	mov    -0x20(%rsp),%eax
  401798:	69 c0 18 45 00 00    	imul   $0x4518,%eax,%eax
  40179e:	89 44 24 e0          	mov    %eax,-0x20(%rsp)
  4017a2:	8b 44 24 ec          	mov    -0x14(%rsp),%eax
  4017a6:	69 c0 25 8c 00 00    	imul   $0x8c25,%eax,%eax
  4017ac:	89 44 24 ec          	mov    %eax,-0x14(%rsp)
  4017b0:	8b 44 24 d8          	mov    -0x28(%rsp),%eax
  4017b4:	69 c0 89 a2 00 00    	imul   $0xa289,%eax,%eax
  4017ba:	89 44 24 d8          	mov    %eax,-0x28(%rsp)
  4017be:	8b 44 24 ec          	mov    -0x14(%rsp),%eax
  4017c2:	69 c0 c2 2c 00 00    	imul   $0x2cc2,%eax,%eax
  4017c8:	89 44 24 ec          	mov    %eax,-0x14(%rsp)
  4017cc:	8b 44 24 e8          	mov    -0x18(%rsp),%eax
  4017d0:	69 c0 79 de 00 00    	imul   $0xde79,%eax,%eax
  4017d6:	89 44 24 e8          	mov    %eax,-0x18(%rsp)
  4017da:	8b 44 24 ec          	mov    -0x14(%rsp),%eax
  4017de:	69 c0 65 8c 00 00    	imul   $0x8c65,%eax,%eax
  4017e4:	89 44 24 ec          	mov    %eax,-0x14(%rsp)
  4017e8:	8b 44 24 ec          	mov    -0x14(%rsp),%eax
  4017ec:	69 c0 50 61 00 00    	imul   $0x6150,%eax,%eax
  4017f2:	89 44 24 ec          	mov    %eax,-0x14(%rsp)
  4017f6:	8b 44 24 e4          	mov    -0x1c(%rsp),%eax
  4017fa:	69 c0 51 24 00 00    	imul   $0x2451,%eax,%eax
  401800:	89 44 24 e4          	mov    %eax,-0x1c(%rsp)
  401804:	8b 44 24 e8          	mov    -0x18(%rsp),%eax
  401808:	69 c0 25 aa 00 00    	imul   $0xaa25,%eax,%eax
  40180e:	89 44 24 e8          	mov    %eax,-0x18(%rsp)
  401812:	8b 44 24 e0          	mov    -0x20(%rsp),%eax
  401816:	69 c0 72 05 00 00    	imul   $0x572,%eax,%eax
  40181c:	89 44 24 e0          	mov    %eax,-0x20(%rsp)
  401820:	8b 44 24 e8          	mov    -0x18(%rsp),%eax
  401824:	69 c0 5d 28 00 00    	imul   $0x285d,%eax,%eax
  40182a:	89 44 24 e8          	mov    %eax,-0x18(%rsp)
  40182e:	8b 44 24 d4          	mov    -0x2c(%rsp),%eax
  401832:	69 c0 3b 48 00 00    	imul   $0x483b,%eax,%eax
  401838:	89 44 24 d4          	mov    %eax,-0x2c(%rsp)
  40183c:	8b 44 24 d8          	mov    -0x28(%rsp),%eax
  401840:	69 c0 02 19 00 00    	imul   $0x1902,%eax,%eax
  401846:	89 44 24 d8          	mov    %eax,-0x28(%rsp)
  40184a:	8b 44 24 f4          	mov    -0xc(%rsp),%eax
  40184e:	69 c0 91 6e 00 00    	imul   $0x6e91,%eax,%eax
  401854:	89 44 24 f4          	mov    %eax,-0xc(%rsp)
  401858:	8b 44 24 dc          	mov    -0x24(%rsp),%eax
  40185c:	69 c0 8f 7d 00 00    	imul   $0x7d8f,%eax,%eax
  401862:	89 44 24 dc          	mov    %eax,-0x24(%rsp)
  401866:	8b 44 24 ec          	mov    -0x14(%rsp),%eax
  40186a:	69 c0 d9 ad 00 00    	imul   $0xadd9,%eax,%eax
  401870:	89 44 24 ec          	mov    %eax,-0x14(%rsp)
  401874:	8b 44 24 d0          	mov    -0x30(%rsp),%eax
  401878:	69 c0 d1 11 00 00    	imul   $0x11d1,%eax,%eax
  40187e:	89 44 24 d0          	mov    %eax,-0x30(%rsp)
  401882:	8b 44 24 d0          	mov    -0x30(%rsp),%eax
  401886:	69 c0 df 18 00 00    	imul   $0x18df,%eax,%eax
  40188c:	89 44 24 d0          	mov    %eax,-0x30(%rsp)
  401890:	8b 44 24 dc          	mov    -0x24(%rsp),%eax
  401894:	69 c0 30 70 00 00    	imul   $0x7030,%eax,%eax
  40189a:	89 44 24 dc          	mov    %eax,-0x24(%rsp)
  40189e:	8b 44 24 ec          	mov    -0x14(%rsp),%eax
  4018a2:	69 c0 49 df 00 00    	imul   $0xdf49,%eax,%eax
  4018a8:	89 44 24 ec          	mov    %eax,-0x14(%rsp)
  4018ac:	8b 44 24 e8          	mov    -0x18(%rsp),%eax
  4018b0:	69 c0 6d f2 00 00    	imul   $0xf26d,%eax,%eax
  4018b6:	89 44 24 e8          	mov    %eax,-0x18(%rsp)
  4018ba:	8b 44 24 e4          	mov    -0x1c(%rsp),%eax
  4018be:	69 c0 4d 64 00 00    	imul   $0x644d,%eax,%eax
  4018c4:	89 44 24 e4          	mov    %eax,-0x1c(%rsp)
  4018c8:	8b 44 24 d8          	mov    -0x28(%rsp),%eax
  4018cc:	69 c0 ed 72 00 00    	imul   $0x72ed,%eax,%eax
  4018d2:	89 44 24 d8          	mov    %eax,-0x28(%rsp)
  4018d6:	8b 44 24 e0          	mov    -0x20(%rsp),%eax
  4018da:	69 c0 2a 58 00 00    	imul   $0x582a,%eax,%eax
  4018e0:	89 44 24 e0          	mov    %eax,-0x20(%rsp)
  4018e4:	8b 44 24 e8          	mov    -0x18(%rsp),%eax
  4018e8:	69 c0 53 90 00 00    	imul   $0x9053,%eax,%eax
  4018ee:	89 44 24 e8          	mov    %eax,-0x18(%rsp)
  4018f2:	8b 44 24 f0          	mov    -0x10(%rsp),%eax
  4018f6:	69 c0 1b a7 00 00    	imul   $0xa71b,%eax,%eax
  4018fc:	89 44 24 f0          	mov    %eax,-0x10(%rsp)
  401900:	8b 44 24 d0          	mov    -0x30(%rsp),%eax
  401904:	69 c0 bd 75 00 00    	imul   $0x75bd,%eax,%eax
  40190a:	89 44 24 d0          	mov    %eax,-0x30(%rsp)
  40190e:	8b 44 24 ec          	mov    -0x14(%rsp),%eax
  401912:	69 c0 61 fa 00 00    	imul   $0xfa61,%eax,%eax
  401918:	89 44 24 ec          	mov    %eax,-0x14(%rsp)
  40191c:	8b 44 24 e0          	mov    -0x20(%rsp),%eax
  401920:	69 c0 d2 21 00 00    	imul   $0x21d2,%eax,%eax
  401926:	89 44 24 e0          	mov    %eax,-0x20(%rsp)
  40192a:	8b 44 24 ec          	mov    -0x14(%rsp),%eax
  40192e:	69 c0 6e 85 00 00    	imul   $0x856e,%eax,%eax
  401934:	89 44 24 ec          	mov    %eax,-0x14(%rsp)
  401938:	8b 44 24 dc          	mov    -0x24(%rsp),%eax
  40193c:	69 c0 8b db 00 00    	imul   $0xdb8b,%eax,%eax
  401942:	89 44 24 dc          	mov    %eax,-0x24(%rsp)
  401946:	8b 44 24 e0          	mov    -0x20(%rsp),%eax
  40194a:	69 c0 09 62 00 00    	imul   $0x6209,%eax,%eax
  401950:	89 44 24 e0          	mov    %eax,-0x20(%rsp)
  401954:	8b 44 24 d8          	mov    -0x28(%rsp),%eax
  401958:	69 c0 46 6d 00 00    	imul   $0x6d46,%eax,%eax
  40195e:	89 44 24 d8          	mov    %eax,-0x28(%rsp)
  401962:	8b 44 24 e8          	mov    -0x18(%rsp),%eax
  401966:	69 c0 b6 a1 00 00    	imul   $0xa1b6,%eax,%eax
  40196c:	89 44 24 e8          	mov    %eax,-0x18(%rsp)
  401970:	8b 44 24 e4          	mov    -0x1c(%rsp),%eax
  401974:	69 c0 89 c0 00 00    	imul   $0xc089,%eax,%eax
  40197a:	89 44 24 e4          	mov    %eax,-0x1c(%rsp)
  40197e:	8b 44 24 e8          	mov    -0x18(%rsp),%eax
  401982:	69 c0 20 2c 00 00    	imul   $0x2c20,%eax,%eax
  401988:	89 44 24 e8          	mov    %eax,-0x18(%rsp)
  40198c:	8b 44 24 dc          	mov    -0x24(%rsp),%eax
  401990:	69 c0 ad ec 00 00    	imul   $0xecad,%eax,%eax
  401996:	89 44 24 dc          	mov    %eax,-0x24(%rsp)
  40199a:	8b 44 24 ec          	mov    -0x14(%rsp),%eax
  40199e:	69 c0 b3 06 00 00    	imul   $0x6b3,%eax,%eax
  4019a4:	89 44 24 ec          	mov    %eax,-0x14(%rsp)
  4019a8:	8b 44 24 e8          	mov    -0x18(%rsp),%eax
  4019ac:	69 c0 0b 19 00 00    	imul   $0x190b,%eax,%eax
  4019b2:	89 44 24 e8          	mov    %eax,-0x18(%rsp)
  4019b6:	8b 44 24 e8          	mov    -0x18(%rsp),%eax
  4019ba:	69 c0 ad 7c 00 00    	imul   $0x7cad,%eax,%eax
  4019c0:	89 44 24 e8          	mov    %eax,-0x18(%rsp)
  4019c4:	8b 44 24 d8          	mov    -0x28(%rsp),%eax
  4019c8:	69 c0 7a bc 00 00    	imul   $0xbc7a,%eax,%eax
  4019ce:	89 44 24 d8          	mov    %eax,-0x28(%rsp)
  4019d2:	8b 44 24 e4          	mov    -0x1c(%rsp),%eax
  4019d6:	69 c0 0e 62 00 00    	imul   $0x620e,%eax,%eax
  4019dc:	89 44 24 e4          	mov    %eax,-0x1c(%rsp)
  4019e0:	8b 44 24 e4          	mov    -0x1c(%rsp),%eax
  4019e4:	69 c0 1e 13 00 00    	imul   $0x131e,%eax,%eax
  4019ea:	89 44 24 e4          	mov    %eax,-0x1c(%rsp)
  4019ee:	8b 44 24 e8          	mov    -0x18(%rsp),%eax
  4019f2:	69 c0 f6 c0 00 00    	imul   $0xc0f6,%eax,%eax
  4019f8:	89 44 24 e8          	mov    %eax,-0x18(%rsp)
  4019fc:	8b 44 24 dc          	mov    -0x24(%rsp),%eax
  401a00:	69 c0 61 c5 00 00    	imul   $0xc561,%eax,%eax
  401a06:	89 44 24 dc          	mov    %eax,-0x24(%rsp)
  401a0a:	8b 44 24 e8          	mov    -0x18(%rsp),%eax
  401a0e:	69 c0 52 d4 00 00    	imul   $0xd452,%eax,%eax
  401a14:	89 44 24 e8          	mov    %eax,-0x18(%rsp)
  401a18:	8b 44 24 dc          	mov    -0x24(%rsp),%eax
  401a1c:	69 c0 ac 79 00 00    	imul   $0x79ac,%eax,%eax
  401a22:	89 44 24 dc          	mov    %eax,-0x24(%rsp)
  401a26:	8b 44 24 d8          	mov    -0x28(%rsp),%eax
  401a2a:	69 c0 48 8e 00 00    	imul   $0x8e48,%eax,%eax
  401a30:	89 44 24 d8          	mov    %eax,-0x28(%rsp)
  401a34:	8b 44 24 f0          	mov    -0x10(%rsp),%eax
  401a38:	69 c0 43 b1 00 00    	imul   $0xb143,%eax,%eax
  401a3e:	89 44 24 f0          	mov    %eax,-0x10(%rsp)
  401a42:	8b 44 24 e0          	mov    -0x20(%rsp),%eax
  401a46:	69 c0 69 c4 00 00    	imul   $0xc469,%eax,%eax
  401a4c:	89 44 24 e0          	mov    %eax,-0x20(%rsp)
  401a50:	8b 44 24 ec          	mov    -0x14(%rsp),%eax
  401a54:	69 c0 fd b0 00 00    	imul   $0xb0fd,%eax,%eax
  401a5a:	89 44 24 ec          	mov    %eax,-0x14(%rsp)
  401a5e:	8b 44 24 ec          	mov    -0x14(%rsp),%eax
  401a62:	69 c0 c2 24 00 00    	imul   $0x24c2,%eax,%eax
  401a68:	89 44 24 ec          	mov    %eax,-0x14(%rsp)
  401a6c:	8b 44 24 dc          	mov    -0x24(%rsp),%eax
  401a70:	69 c0 f6 80 00 00    	imul   $0x80f6,%eax,%eax
  401a76:	89 44 24 dc          	mov    %eax,-0x24(%rsp)
  401a7a:	8b 44 24 f4          	mov    -0xc(%rsp),%eax
  401a7e:	69 c0 46 fd 00 00    	imul   $0xfd46,%eax,%eax
  401a84:	89 44 24 f4          	mov    %eax,-0xc(%rsp)
  401a88:	8b 44 24 ec          	mov    -0x14(%rsp),%eax
  401a8c:	69 c0 53 8a 00 00    	imul   $0x8a53,%eax,%eax
  401a92:	89 44 24 ec          	mov    %eax,-0x14(%rsp)
  401a96:	8b 44 24 d8          	mov    -0x28(%rsp),%eax
  401a9a:	69 c0 60 43 00 00    	imul   $0x4360,%eax,%eax
  401aa0:	89 44 24 d8          	mov    %eax,-0x28(%rsp)
  401aa4:	8b 44 24 d8          	mov    -0x28(%rsp),%eax
  401aa8:	69 c0 bc 9d 00 00    	imul   $0x9dbc,%eax,%eax
  401aae:	89 44 24 d8          	mov    %eax,-0x28(%rsp)
  401ab2:	8b 44 24 e0          	mov    -0x20(%rsp),%eax
  401ab6:	69 c0 05 79 00 00    	imul   $0x7905,%eax,%eax
  401abc:	89 44 24 e0          	mov    %eax,-0x20(%rsp)
  401ac0:	8b 44 24 e8          	mov    -0x18(%rsp),%eax
  401ac4:	69 c0 de 01 00 00    	imul   $0x1de,%eax,%eax
  401aca:	89 44 24 e8          	mov    %eax,-0x18(%rsp)
  401ace:	8b 44 24 f4          	mov    -0xc(%rsp),%eax
  401ad2:	69 c0 cb e5 00 00    	imul   $0xe5cb,%eax,%eax
  401ad8:	89 44 24 f4          	mov    %eax,-0xc(%rsp)
  401adc:	8b 44 24 f4          	mov    -0xc(%rsp),%eax
  401ae0:	69 c0 61 80 00 00    	imul   $0x8061,%eax,%eax
  401ae6:	89 44 24 f4          	mov    %eax,-0xc(%rsp)
  401aea:	8b 44 24 ec          	mov    -0x14(%rsp),%eax
  401aee:	69 c0 2c 68 00 00    	imul   $0x682c,%eax,%eax
  401af4:	89 44 24 ec          	mov    %eax,-0x14(%rsp)
  401af8:	8b 44 24 d0          	mov    -0x30(%rsp),%eax
  401afc:	69 c0 78 f0 00 00    	imul   $0xf078,%eax,%eax
  401b02:	89 44 24 d0          	mov    %eax,-0x30(%rsp)
  401b06:	8b 44 24 d4          	mov    -0x2c(%rsp),%eax
  401b0a:	69 c0 00 e1 00 00    	imul   $0xe100,%eax,%eax
  401b10:	89 44 24 d4          	mov    %eax,-0x2c(%rsp)
  401b14:	8b 44 24 dc          	mov    -0x24(%rsp),%eax
  401b18:	69 c0 73 26 00 00    	imul   $0x2673,%eax,%eax
  401b1e:	89 44 24 dc          	mov    %eax,-0x24(%rsp)
  401b22:	8b 44 24 e8          	mov    -0x18(%rsp),%eax
  401b26:	69 c0 87 13 00 00    	imul   $0x1387,%eax,%eax
  401b2c:	89 44 24 e8          	mov    %eax,-0x18(%rsp)
  401b30:	8b 44 24 e4          	mov    -0x1c(%rsp),%eax
  401b34:	69 c0 f2 95 00 00    	imul   $0x95f2,%eax,%eax
  401b3a:	89 44 24 e4          	mov    %eax,-0x1c(%rsp)
  401b3e:	8b 44 24 e0          	mov    -0x20(%rsp),%eax
  401b42:	69 c0 1b 75 00 00    	imul   $0x751b,%eax,%eax
  401b48:	89 44 24 e0          	mov    %eax,-0x20(%rsp)
  401b4c:	8b 44 24 f4          	mov    -0xc(%rsp),%eax
  401b50:	69 c0 be 63 00 00    	imul   $0x63be,%eax,%eax
  401b56:	89 44 24 f4          	mov    %eax,-0xc(%rsp)
  401b5a:	8b 44 24 d0          	mov    -0x30(%rsp),%eax
  401b5e:	69 c0 e9 b0 00 00    	imul   $0xb0e9,%eax,%eax
  401b64:	89 44 24 d0          	mov    %eax,-0x30(%rsp)
  401b68:	8b 44 24 dc          	mov    -0x24(%rsp),%eax
  401b6c:	69 c0 55 ec 00 00    	imul   $0xec55,%eax,%eax
  401b72:	89 44 24 dc          	mov    %eax,-0x24(%rsp)
  401b76:	8b 44 24 f4          	mov    -0xc(%rsp),%eax
  401b7a:	69 c0 e0 34 00 00    	imul   $0x34e0,%eax,%eax
  401b80:	89 44 24 f4          	mov    %eax,-0xc(%rsp)
  401b84:	8b 44 24 e4          	mov    -0x1c(%rsp),%eax
  401b88:	69 c0 b8 99 00 00    	imul   $0x99b8,%eax,%eax
  401b8e:	89 44 24 e4          	mov    %eax,-0x1c(%rsp)
  401b92:	8b 44 24 f0          	mov    -0x10(%rsp),%eax
  401b96:	69 c0 eb 3a 00 00    	imul   $0x3aeb,%eax,%eax
  401b9c:	89 44 24 f0          	mov    %eax,-0x10(%rsp)
  401ba0:	8b 44 24 f0          	mov    -0x10(%rsp),%eax
  401ba4:	69 c0 e1 e7 00 00    	imul   $0xe7e1,%eax,%eax
  401baa:	89 44 24 f0          	mov    %eax,-0x10(%rsp)
  401bae:	8b 44 24 d0          	mov    -0x30(%rsp),%eax
  401bb2:	69 c0 d5 62 00 00    	imul   $0x62d5,%eax,%eax
  401bb8:	89 44 24 d0          	mov    %eax,-0x30(%rsp)
  401bbc:	b8 00 00 00 00       	mov    $0x0,%eax
  401bc1:	ba 00 00 00 00       	mov    $0x0,%edx
  401bc6:	eb 0b                	jmp    401bd3 <scramble+0x4f6>
  401bc8:	89 c1                	mov    %eax,%ecx
  401bca:	8b 4c 8c d0          	mov    -0x30(%rsp,%rcx,4),%ecx
  401bce:	01 ca                	add    %ecx,%edx
  401bd0:	83 c0 01             	add    $0x1,%eax
  401bd3:	83 f8 09             	cmp    $0x9,%eax
  401bd6:	76 f0                	jbe    401bc8 <scramble+0x4eb>
  401bd8:	89 d0                	mov    %edx,%eax
  401bda:	c3                   	retq   

0000000000401bdb <getbuf>:
  401bdb:	48 83 ec 38          	sub    $0x38,%rsp
  401bdf:	48 89 e7             	mov    %rsp,%rdi
  401be2:	e8 3f 02 00 00       	callq  401e26 <Gets>
  401be7:	b8 01 00 00 00       	mov    $0x1,%eax
  401bec:	48 83 c4 38          	add    $0x38,%rsp
  401bf0:	c3                   	retq   

0000000000401bf1 <touch1>:
  401bf1:	48 83 ec 08          	sub    $0x8,%rsp
  401bf5:	c7 05 2d 49 00 00 01 	movl   $0x1,0x492d(%rip)        # 40652c <vlevel>
  401bfc:	00 00 00 
  401bff:	48 8d 3d 0c 17 00 00 	lea    0x170c(%rip),%rdi        # 403312 <_IO_stdin_used+0x312>
  401c06:	e8 75 f4 ff ff       	callq  401080 <puts@plt>
  401c0b:	bf 01 00 00 00       	mov    $0x1,%edi
  401c10:	e8 0b 03 00 00       	callq  401f20 <validate>
  401c15:	bf 00 00 00 00       	mov    $0x0,%edi
  401c1a:	e8 e1 f5 ff ff       	callq  401200 <exit@plt>

0000000000401c1f <touch2>:
  401c1f:	48 83 ec 08          	sub    $0x8,%rsp
  401c23:	89 fe                	mov    %edi,%esi
  401c25:	c7 05 fd 48 00 00 02 	movl   $0x2,0x48fd(%rip)        # 40652c <vlevel>
  401c2c:	00 00 00 
  401c2f:	39 3d ff 48 00 00    	cmp    %edi,0x48ff(%rip)        # 406534 <cookie>
  401c35:	74 25                	je     401c5c <touch2+0x3d>
  401c37:	48 8d 3d 22 17 00 00 	lea    0x1722(%rip),%rdi        # 403360 <_IO_stdin_used+0x360>
  401c3e:	b8 00 00 00 00       	mov    $0x0,%eax
  401c43:	e8 78 f4 ff ff       	callq  4010c0 <printf@plt>
  401c48:	bf 02 00 00 00       	mov    $0x2,%edi
  401c4d:	e8 8c 03 00 00       	callq  401fde <fail>
  401c52:	bf 00 00 00 00       	mov    $0x0,%edi
  401c57:	e8 a4 f5 ff ff       	callq  401200 <exit@plt>
  401c5c:	48 8d 3d d5 16 00 00 	lea    0x16d5(%rip),%rdi        # 403338 <_IO_stdin_used+0x338>
  401c63:	b8 00 00 00 00       	mov    $0x0,%eax
  401c68:	e8 53 f4 ff ff       	callq  4010c0 <printf@plt>
  401c6d:	bf 02 00 00 00       	mov    $0x2,%edi
  401c72:	e8 a9 02 00 00       	callq  401f20 <validate>
  401c77:	eb d9                	jmp    401c52 <touch2+0x33>

0000000000401c79 <hexmatch>:
  401c79:	41 54                	push   %r12
  401c7b:	55                   	push   %rbp
  401c7c:	53                   	push   %rbx
  401c7d:	48 83 ec 70          	sub    $0x70,%rsp
  401c81:	89 fd                	mov    %edi,%ebp
  401c83:	48 89 f3             	mov    %rsi,%rbx
  401c86:	e8 e5 f4 ff ff       	callq  401170 <random@plt>
  401c8b:	48 89 c1             	mov    %rax,%rcx
  401c8e:	48 ba 0b d7 a3 70 3d 	movabs $0xa3d70a3d70a3d70b,%rdx
  401c95:	0a d7 a3 
  401c98:	48 f7 ea             	imul   %rdx
  401c9b:	48 01 ca             	add    %rcx,%rdx
  401c9e:	48 c1 fa 06          	sar    $0x6,%rdx
  401ca2:	48 89 c8             	mov    %rcx,%rax
  401ca5:	48 c1 f8 3f          	sar    $0x3f,%rax
  401ca9:	48 29 c2             	sub    %rax,%rdx
  401cac:	48 8d 04 92          	lea    (%rdx,%rdx,4),%rax
  401cb0:	48 8d 04 80          	lea    (%rax,%rax,4),%rax
  401cb4:	48 c1 e0 02          	shl    $0x2,%rax
  401cb8:	48 29 c1             	sub    %rax,%rcx
  401cbb:	4c 8d 24 0c          	lea    (%rsp,%rcx,1),%r12
  401cbf:	89 ea                	mov    %ebp,%edx
  401cc1:	48 8d 35 67 16 00 00 	lea    0x1667(%rip),%rsi        # 40332f <_IO_stdin_used+0x32f>
  401cc8:	4c 89 e7             	mov    %r12,%rdi
  401ccb:	b8 00 00 00 00       	mov    $0x0,%eax
  401cd0:	e8 1b f5 ff ff       	callq  4011f0 <sprintf@plt>
  401cd5:	ba 09 00 00 00       	mov    $0x9,%edx
  401cda:	4c 89 e6             	mov    %r12,%rsi
  401cdd:	48 89 df             	mov    %rbx,%rdi
  401ce0:	e8 7b f3 ff ff       	callq  401060 <strncmp@plt>
  401ce5:	85 c0                	test   %eax,%eax
  401ce7:	0f 94 c0             	sete   %al
  401cea:	0f b6 c0             	movzbl %al,%eax
  401ced:	48 83 c4 70          	add    $0x70,%rsp
  401cf1:	5b                   	pop    %rbx
  401cf2:	5d                   	pop    %rbp
  401cf3:	41 5c                	pop    %r12
  401cf5:	c3                   	retq   

0000000000401cf6 <touch3>:
  401cf6:	53                   	push   %rbx
  401cf7:	48 89 fb             	mov    %rdi,%rbx
  401cfa:	c7 05 28 48 00 00 03 	movl   $0x3,0x4828(%rip)        # 40652c <vlevel>
  401d01:	00 00 00 
  401d04:	48 89 fe             	mov    %rdi,%rsi
  401d07:	8b 3d 27 48 00 00    	mov    0x4827(%rip),%edi        # 406534 <cookie>
  401d0d:	e8 67 ff ff ff       	callq  401c79 <hexmatch>
  401d12:	85 c0                	test   %eax,%eax
  401d14:	74 28                	je     401d3e <touch3+0x48>
  401d16:	48 89 de             	mov    %rbx,%rsi
  401d19:	48 8d 3d 68 16 00 00 	lea    0x1668(%rip),%rdi        # 403388 <_IO_stdin_used+0x388>
  401d20:	b8 00 00 00 00       	mov    $0x0,%eax
  401d25:	e8 96 f3 ff ff       	callq  4010c0 <printf@plt>
  401d2a:	bf 03 00 00 00       	mov    $0x3,%edi
  401d2f:	e8 ec 01 00 00       	callq  401f20 <validate>
  401d34:	bf 00 00 00 00       	mov    $0x0,%edi
  401d39:	e8 c2 f4 ff ff       	callq  401200 <exit@plt>
  401d3e:	48 89 de             	mov    %rbx,%rsi
  401d41:	48 8d 3d 68 16 00 00 	lea    0x1668(%rip),%rdi        # 4033b0 <_IO_stdin_used+0x3b0>
  401d48:	b8 00 00 00 00       	mov    $0x0,%eax
  401d4d:	e8 6e f3 ff ff       	callq  4010c0 <printf@plt>
  401d52:	bf 03 00 00 00       	mov    $0x3,%edi
  401d57:	e8 82 02 00 00       	callq  401fde <fail>
  401d5c:	eb d6                	jmp    401d34 <touch3+0x3e>

0000000000401d5e <test>:
  401d5e:	48 83 ec 08          	sub    $0x8,%rsp
  401d62:	b8 00 00 00 00       	mov    $0x0,%eax
  401d67:	e8 6f fe ff ff       	callq  401bdb <getbuf>
  401d6c:	89 c6                	mov    %eax,%esi
  401d6e:	48 8d 3d 63 16 00 00 	lea    0x1663(%rip),%rdi        # 4033d8 <_IO_stdin_used+0x3d8>
  401d75:	b8 00 00 00 00       	mov    $0x0,%eax
  401d7a:	e8 41 f3 ff ff       	callq  4010c0 <printf@plt>
  401d7f:	48 83 c4 08          	add    $0x8,%rsp
  401d83:	c3                   	retq   

0000000000401d84 <save_char>:
  401d84:	8b 05 ba 53 00 00    	mov    0x53ba(%rip),%eax        # 407144 <gets_cnt>
  401d8a:	3d ff 03 00 00       	cmp    $0x3ff,%eax
  401d8f:	7f 4a                	jg     401ddb <save_char+0x57>
  401d91:	89 f9                	mov    %edi,%ecx
  401d93:	c0 e9 04             	shr    $0x4,%cl
  401d96:	8d 14 40             	lea    (%rax,%rax,2),%edx
  401d99:	4c 8d 05 b0 18 00 00 	lea    0x18b0(%rip),%r8        # 403650 <trans_char>
  401da0:	83 e1 0f             	and    $0xf,%ecx
  401da3:	45 0f b6 0c 08       	movzbl (%r8,%rcx,1),%r9d
  401da8:	48 8d 0d 91 47 00 00 	lea    0x4791(%rip),%rcx        # 406540 <gets_buf>
  401daf:	48 63 f2             	movslq %edx,%rsi
  401db2:	44 88 0c 31          	mov    %r9b,(%rcx,%rsi,1)
  401db6:	8d 72 01             	lea    0x1(%rdx),%esi
  401db9:	83 e7 0f             	and    $0xf,%edi
  401dbc:	41 0f b6 3c 38       	movzbl (%r8,%rdi,1),%edi
  401dc1:	48 63 f6             	movslq %esi,%rsi
  401dc4:	40 88 3c 31          	mov    %dil,(%rcx,%rsi,1)
  401dc8:	83 c2 02             	add    $0x2,%edx
  401dcb:	48 63 d2             	movslq %edx,%rdx
  401dce:	c6 04 11 20          	movb   $0x20,(%rcx,%rdx,1)
  401dd2:	83 c0 01             	add    $0x1,%eax
  401dd5:	89 05 69 53 00 00    	mov    %eax,0x5369(%rip)        # 407144 <gets_cnt>
  401ddb:	c3                   	retq   

0000000000401ddc <save_term>:
  401ddc:	8b 05 62 53 00 00    	mov    0x5362(%rip),%eax        # 407144 <gets_cnt>
  401de2:	8d 04 40             	lea    (%rax,%rax,2),%eax
  401de5:	48 98                	cltq   
  401de7:	48 8d 15 52 47 00 00 	lea    0x4752(%rip),%rdx        # 406540 <gets_buf>
  401dee:	c6 04 02 00          	movb   $0x0,(%rdx,%rax,1)
  401df2:	c3                   	retq   

0000000000401df3 <check_fail>:
  401df3:	48 83 ec 08          	sub    $0x8,%rsp
  401df7:	0f be 35 26 47 00 00 	movsbl 0x4726(%rip),%esi        # 406524 <target_prefix>
  401dfe:	48 8d 0d 3b 47 00 00 	lea    0x473b(%rip),%rcx        # 406540 <gets_buf>
  401e05:	8b 15 1d 47 00 00    	mov    0x471d(%rip),%edx        # 406528 <check_level>
  401e0b:	48 8d 3d e9 15 00 00 	lea    0x15e9(%rip),%rdi        # 4033fb <_IO_stdin_used+0x3fb>
  401e12:	b8 00 00 00 00       	mov    $0x0,%eax
  401e17:	e8 a4 f2 ff ff       	callq  4010c0 <printf@plt>
  401e1c:	bf 01 00 00 00       	mov    $0x1,%edi
  401e21:	e8 da f3 ff ff       	callq  401200 <exit@plt>

0000000000401e26 <Gets>:
  401e26:	41 54                	push   %r12
  401e28:	55                   	push   %rbp
  401e29:	53                   	push   %rbx
  401e2a:	49 89 fc             	mov    %rdi,%r12
  401e2d:	c7 05 0d 53 00 00 00 	movl   $0x0,0x530d(%rip)        # 407144 <gets_cnt>
  401e34:	00 00 00 
  401e37:	48 89 fb             	mov    %rdi,%rbx
  401e3a:	eb 11                	jmp    401e4d <Gets+0x27>
  401e3c:	48 8d 6b 01          	lea    0x1(%rbx),%rbp
  401e40:	88 03                	mov    %al,(%rbx)
  401e42:	0f b6 f8             	movzbl %al,%edi
  401e45:	e8 3a ff ff ff       	callq  401d84 <save_char>
  401e4a:	48 89 eb             	mov    %rbp,%rbx
  401e4d:	48 8b 3d c4 46 00 00 	mov    0x46c4(%rip),%rdi        # 406518 <infile>
  401e54:	e8 c7 f3 ff ff       	callq  401220 <getc@plt>
  401e59:	83 f8 ff             	cmp    $0xffffffff,%eax
  401e5c:	74 05                	je     401e63 <Gets+0x3d>
  401e5e:	83 f8 0a             	cmp    $0xa,%eax
  401e61:	75 d9                	jne    401e3c <Gets+0x16>
  401e63:	c6 03 00             	movb   $0x0,(%rbx)
  401e66:	b8 00 00 00 00       	mov    $0x0,%eax
  401e6b:	e8 6c ff ff ff       	callq  401ddc <save_term>
  401e70:	4c 89 e0             	mov    %r12,%rax
  401e73:	5b                   	pop    %rbx
  401e74:	5d                   	pop    %rbp
  401e75:	41 5c                	pop    %r12
  401e77:	c3                   	retq   

0000000000401e78 <notify_server>:
  401e78:	83 3d b9 46 00 00 00 	cmpl   $0x0,0x46b9(%rip)        # 406538 <is_checker>
  401e7f:	0f 85 9a 00 00 00    	jne    401f1f <notify_server+0xa7>
  401e85:	53                   	push   %rbx
  401e86:	48 81 ec 00 20 00 00 	sub    $0x2000,%rsp
  401e8d:	81 3d ad 52 00 00 9c 	cmpl   $0x1f9c,0x52ad(%rip)        # 407144 <gets_cnt>
  401e94:	1f 00 00 
  401e97:	7f 5a                	jg     401ef3 <notify_server+0x7b>
  401e99:	44 0f be 0d 83 46 00 	movsbl 0x4683(%rip),%r9d        # 406524 <target_prefix>
  401ea0:	00 
  401ea1:	83 3d 78 46 00 00 00 	cmpl   $0x0,0x4678(%rip)        # 406520 <notify>
  401ea8:	74 64                	je     401f0e <notify_server+0x96>
  401eaa:	44 8b 05 7f 46 00 00 	mov    0x467f(%rip),%r8d        # 406530 <authkey>
  401eb1:	85 ff                	test   %edi,%edi
  401eb3:	74 61                	je     401f16 <notify_server+0x9e>
  401eb5:	48 8d 1d 5a 15 00 00 	lea    0x155a(%rip),%rbx        # 403416 <_IO_stdin_used+0x416>
  401ebc:	48 89 e7             	mov    %rsp,%rdi
  401ebf:	48 8d 05 7a 46 00 00 	lea    0x467a(%rip),%rax        # 406540 <gets_buf>
  401ec6:	50                   	push   %rax
  401ec7:	56                   	push   %rsi
  401ec8:	48 89 d9             	mov    %rbx,%rcx
  401ecb:	8b 15 5f 42 00 00    	mov    0x425f(%rip),%edx        # 406130 <target_id>
  401ed1:	48 8d 35 43 15 00 00 	lea    0x1543(%rip),%rsi        # 40341b <_IO_stdin_used+0x41b>
  401ed8:	b8 00 00 00 00       	mov    $0x0,%eax
  401edd:	e8 0e f3 ff ff       	callq  4011f0 <sprintf@plt>
  401ee2:	48 89 df             	mov    %rbx,%rdi
  401ee5:	e8 96 f1 ff ff       	callq  401080 <puts@plt>
  401eea:	48 81 c4 10 20 00 00 	add    $0x2010,%rsp
  401ef1:	5b                   	pop    %rbx
  401ef2:	c3                   	retq   
  401ef3:	48 8d 3d e6 15 00 00 	lea    0x15e6(%rip),%rdi        # 4034e0 <_IO_stdin_used+0x4e0>
  401efa:	b8 00 00 00 00       	mov    $0x0,%eax
  401eff:	e8 bc f1 ff ff       	callq  4010c0 <printf@plt>
  401f04:	bf 01 00 00 00       	mov    $0x1,%edi
  401f09:	e8 f2 f2 ff ff       	callq  401200 <exit@plt>
  401f0e:	41 b8 ff ff ff ff    	mov    $0xffffffff,%r8d
  401f14:	eb 9b                	jmp    401eb1 <notify_server+0x39>
  401f16:	48 8d 1d f4 14 00 00 	lea    0x14f4(%rip),%rbx        # 403411 <_IO_stdin_used+0x411>
  401f1d:	eb 9d                	jmp    401ebc <notify_server+0x44>
  401f1f:	c3                   	retq   

0000000000401f20 <validate>:
  401f20:	53                   	push   %rbx
  401f21:	89 fb                	mov    %edi,%ebx
  401f23:	83 3d 0e 46 00 00 00 	cmpl   $0x0,0x460e(%rip)        # 406538 <is_checker>
  401f2a:	74 68                	je     401f94 <validate+0x74>
  401f2c:	39 3d fa 45 00 00    	cmp    %edi,0x45fa(%rip)        # 40652c <vlevel>
  401f32:	75 2d                	jne    401f61 <validate+0x41>
  401f34:	8b 35 ee 45 00 00    	mov    0x45ee(%rip),%esi        # 406528 <check_level>
  401f3a:	39 fe                	cmp    %edi,%esi
  401f3c:	75 39                	jne    401f77 <validate+0x57>
  401f3e:	0f be 35 df 45 00 00 	movsbl 0x45df(%rip),%esi        # 406524 <target_prefix>
  401f45:	48 8d 0d f4 45 00 00 	lea    0x45f4(%rip),%rcx        # 406540 <gets_buf>
  401f4c:	89 fa                	mov    %edi,%edx
  401f4e:	48 8d 3d 00 15 00 00 	lea    0x1500(%rip),%rdi        # 403455 <_IO_stdin_used+0x455>
  401f55:	b8 00 00 00 00       	mov    $0x0,%eax
  401f5a:	e8 61 f1 ff ff       	callq  4010c0 <printf@plt>
  401f5f:	5b                   	pop    %rbx
  401f60:	c3                   	retq   
  401f61:	48 8d 3d cf 14 00 00 	lea    0x14cf(%rip),%rdi        # 403437 <_IO_stdin_used+0x437>
  401f68:	e8 13 f1 ff ff       	callq  401080 <puts@plt>
  401f6d:	b8 00 00 00 00       	mov    $0x0,%eax
  401f72:	e8 7c fe ff ff       	callq  401df3 <check_fail>
  401f77:	89 fa                	mov    %edi,%edx
  401f79:	48 8d 3d 90 15 00 00 	lea    0x1590(%rip),%rdi        # 403510 <_IO_stdin_used+0x510>
  401f80:	b8 00 00 00 00       	mov    $0x0,%eax
  401f85:	e8 36 f1 ff ff       	callq  4010c0 <printf@plt>
  401f8a:	b8 00 00 00 00       	mov    $0x0,%eax
  401f8f:	e8 5f fe ff ff       	callq  401df3 <check_fail>
  401f94:	39 3d 92 45 00 00    	cmp    %edi,0x4592(%rip)        # 40652c <vlevel>
  401f9a:	74 1a                	je     401fb6 <validate+0x96>
  401f9c:	48 8d 3d 94 14 00 00 	lea    0x1494(%rip),%rdi        # 403437 <_IO_stdin_used+0x437>
  401fa3:	e8 d8 f0 ff ff       	callq  401080 <puts@plt>
  401fa8:	89 de                	mov    %ebx,%esi
  401faa:	bf 00 00 00 00       	mov    $0x0,%edi
  401faf:	e8 c4 fe ff ff       	callq  401e78 <notify_server>
  401fb4:	eb a9                	jmp    401f5f <validate+0x3f>
  401fb6:	0f be 15 67 45 00 00 	movsbl 0x4567(%rip),%edx        # 406524 <target_prefix>
  401fbd:	89 fe                	mov    %edi,%esi
  401fbf:	48 8d 3d 72 15 00 00 	lea    0x1572(%rip),%rdi        # 403538 <_IO_stdin_used+0x538>
  401fc6:	b8 00 00 00 00       	mov    $0x0,%eax
  401fcb:	e8 f0 f0 ff ff       	callq  4010c0 <printf@plt>
  401fd0:	89 de                	mov    %ebx,%esi
  401fd2:	bf 01 00 00 00       	mov    $0x1,%edi
  401fd7:	e8 9c fe ff ff       	callq  401e78 <notify_server>
  401fdc:	eb 81                	jmp    401f5f <validate+0x3f>

0000000000401fde <fail>:
  401fde:	48 83 ec 08          	sub    $0x8,%rsp
  401fe2:	83 3d 4f 45 00 00 00 	cmpl   $0x0,0x454f(%rip)        # 406538 <is_checker>
  401fe9:	75 11                	jne    401ffc <fail+0x1e>
  401feb:	89 fe                	mov    %edi,%esi
  401fed:	bf 00 00 00 00       	mov    $0x0,%edi
  401ff2:	e8 81 fe ff ff       	callq  401e78 <notify_server>
  401ff7:	48 83 c4 08          	add    $0x8,%rsp
  401ffb:	c3                   	retq   
  401ffc:	b8 00 00 00 00       	mov    $0x0,%eax
  402001:	e8 ed fd ff ff       	callq  401df3 <check_fail>

0000000000402006 <bushandler>:
  402006:	48 83 ec 08          	sub    $0x8,%rsp
  40200a:	83 3d 27 45 00 00 00 	cmpl   $0x0,0x4527(%rip)        # 406538 <is_checker>
  402011:	74 16                	je     402029 <bushandler+0x23>
  402013:	48 8d 3d 50 14 00 00 	lea    0x1450(%rip),%rdi        # 40346a <_IO_stdin_used+0x46a>
  40201a:	e8 61 f0 ff ff       	callq  401080 <puts@plt>
  40201f:	b8 00 00 00 00       	mov    $0x0,%eax
  402024:	e8 ca fd ff ff       	callq  401df3 <check_fail>
  402029:	48 8d 3d 40 15 00 00 	lea    0x1540(%rip),%rdi        # 403570 <_IO_stdin_used+0x570>
  402030:	e8 4b f0 ff ff       	callq  401080 <puts@plt>
  402035:	48 8d 3d 38 14 00 00 	lea    0x1438(%rip),%rdi        # 403474 <_IO_stdin_used+0x474>
  40203c:	e8 3f f0 ff ff       	callq  401080 <puts@plt>
  402041:	be 00 00 00 00       	mov    $0x0,%esi
  402046:	bf 00 00 00 00       	mov    $0x0,%edi
  40204b:	e8 28 fe ff ff       	callq  401e78 <notify_server>
  402050:	bf 01 00 00 00       	mov    $0x1,%edi
  402055:	e8 a6 f1 ff ff       	callq  401200 <exit@plt>

000000000040205a <seghandler>:
  40205a:	48 83 ec 08          	sub    $0x8,%rsp
  40205e:	83 3d d3 44 00 00 00 	cmpl   $0x0,0x44d3(%rip)        # 406538 <is_checker>
  402065:	74 16                	je     40207d <seghandler+0x23>
  402067:	48 8d 3d 1c 14 00 00 	lea    0x141c(%rip),%rdi        # 40348a <_IO_stdin_used+0x48a>
  40206e:	e8 0d f0 ff ff       	callq  401080 <puts@plt>
  402073:	b8 00 00 00 00       	mov    $0x0,%eax
  402078:	e8 76 fd ff ff       	callq  401df3 <check_fail>
  40207d:	48 8d 3d 0c 15 00 00 	lea    0x150c(%rip),%rdi        # 403590 <_IO_stdin_used+0x590>
  402084:	e8 f7 ef ff ff       	callq  401080 <puts@plt>
  402089:	48 8d 3d e4 13 00 00 	lea    0x13e4(%rip),%rdi        # 403474 <_IO_stdin_used+0x474>
  402090:	e8 eb ef ff ff       	callq  401080 <puts@plt>
  402095:	be 00 00 00 00       	mov    $0x0,%esi
  40209a:	bf 00 00 00 00       	mov    $0x0,%edi
  40209f:	e8 d4 fd ff ff       	callq  401e78 <notify_server>
  4020a4:	bf 01 00 00 00       	mov    $0x1,%edi
  4020a9:	e8 52 f1 ff ff       	callq  401200 <exit@plt>

00000000004020ae <illegalhandler>:
  4020ae:	48 83 ec 08          	sub    $0x8,%rsp
  4020b2:	83 3d 7f 44 00 00 00 	cmpl   $0x0,0x447f(%rip)        # 406538 <is_checker>
  4020b9:	74 16                	je     4020d1 <illegalhandler+0x23>
  4020bb:	48 8d 3d db 13 00 00 	lea    0x13db(%rip),%rdi        # 40349d <_IO_stdin_used+0x49d>
  4020c2:	e8 b9 ef ff ff       	callq  401080 <puts@plt>
  4020c7:	b8 00 00 00 00       	mov    $0x0,%eax
  4020cc:	e8 22 fd ff ff       	callq  401df3 <check_fail>
  4020d1:	48 8d 3d e0 14 00 00 	lea    0x14e0(%rip),%rdi        # 4035b8 <_IO_stdin_used+0x5b8>
  4020d8:	e8 a3 ef ff ff       	callq  401080 <puts@plt>
  4020dd:	48 8d 3d 90 13 00 00 	lea    0x1390(%rip),%rdi        # 403474 <_IO_stdin_used+0x474>
  4020e4:	e8 97 ef ff ff       	callq  401080 <puts@plt>
  4020e9:	be 00 00 00 00       	mov    $0x0,%esi
  4020ee:	bf 00 00 00 00       	mov    $0x0,%edi
  4020f3:	e8 80 fd ff ff       	callq  401e78 <notify_server>
  4020f8:	bf 01 00 00 00       	mov    $0x1,%edi
  4020fd:	e8 fe f0 ff ff       	callq  401200 <exit@plt>

0000000000402102 <sigalrmhandler>:
  402102:	48 83 ec 08          	sub    $0x8,%rsp
  402106:	83 3d 2b 44 00 00 00 	cmpl   $0x0,0x442b(%rip)        # 406538 <is_checker>
  40210d:	74 16                	je     402125 <sigalrmhandler+0x23>
  40210f:	48 8d 3d 9b 13 00 00 	lea    0x139b(%rip),%rdi        # 4034b1 <_IO_stdin_used+0x4b1>
  402116:	e8 65 ef ff ff       	callq  401080 <puts@plt>
  40211b:	b8 00 00 00 00       	mov    $0x0,%eax
  402120:	e8 ce fc ff ff       	callq  401df3 <check_fail>
  402125:	be 05 00 00 00       	mov    $0x5,%esi
  40212a:	48 8d 3d b7 14 00 00 	lea    0x14b7(%rip),%rdi        # 4035e8 <_IO_stdin_used+0x5e8>
  402131:	b8 00 00 00 00       	mov    $0x0,%eax
  402136:	e8 85 ef ff ff       	callq  4010c0 <printf@plt>
  40213b:	be 00 00 00 00       	mov    $0x0,%esi
  402140:	bf 00 00 00 00       	mov    $0x0,%edi
  402145:	e8 2e fd ff ff       	callq  401e78 <notify_server>
  40214a:	bf 01 00 00 00       	mov    $0x1,%edi
  40214f:	e8 ac f0 ff ff       	callq  401200 <exit@plt>

0000000000402154 <launch>:
  402154:	55                   	push   %rbp
  402155:	48 89 e5             	mov    %rsp,%rbp
  402158:	48 89 fa             	mov    %rdi,%rdx
  40215b:	48 8d 47 17          	lea    0x17(%rdi),%rax
  40215f:	48 83 e0 f0          	and    $0xfffffffffffffff0,%rax
  402163:	48 29 c4             	sub    %rax,%rsp
  402166:	48 8d 7c 24 0f       	lea    0xf(%rsp),%rdi
  40216b:	48 83 e7 f0          	and    $0xfffffffffffffff0,%rdi
  40216f:	be f4 00 00 00       	mov    $0xf4,%esi
  402174:	e8 57 ef ff ff       	callq  4010d0 <memset@plt>
  402179:	48 8b 05 20 43 00 00 	mov    0x4320(%rip),%rax        # 4064a0 <stdin@@GLIBC_2.2.5>
  402180:	48 39 05 91 43 00 00 	cmp    %rax,0x4391(%rip)        # 406518 <infile>
  402187:	74 2b                	je     4021b4 <launch+0x60>
  402189:	c7 05 99 43 00 00 00 	movl   $0x0,0x4399(%rip)        # 40652c <vlevel>
  402190:	00 00 00 
  402193:	b8 00 00 00 00       	mov    $0x0,%eax
  402198:	e8 c1 fb ff ff       	callq  401d5e <test>
  40219d:	83 3d 94 43 00 00 00 	cmpl   $0x0,0x4394(%rip)        # 406538 <is_checker>
  4021a4:	75 21                	jne    4021c7 <launch+0x73>
  4021a6:	48 8d 3d 24 13 00 00 	lea    0x1324(%rip),%rdi        # 4034d1 <_IO_stdin_used+0x4d1>
  4021ad:	e8 ce ee ff ff       	callq  401080 <puts@plt>
  4021b2:	c9                   	leaveq 
  4021b3:	c3                   	retq   
  4021b4:	48 8d 3d fe 12 00 00 	lea    0x12fe(%rip),%rdi        # 4034b9 <_IO_stdin_used+0x4b9>
  4021bb:	b8 00 00 00 00       	mov    $0x0,%eax
  4021c0:	e8 fb ee ff ff       	callq  4010c0 <printf@plt>
  4021c5:	eb c2                	jmp    402189 <launch+0x35>
  4021c7:	48 8d 3d f8 12 00 00 	lea    0x12f8(%rip),%rdi        # 4034c6 <_IO_stdin_used+0x4c6>
  4021ce:	e8 ad ee ff ff       	callq  401080 <puts@plt>
  4021d3:	b8 00 00 00 00       	mov    $0x0,%eax
  4021d8:	e8 16 fc ff ff       	callq  401df3 <check_fail>

00000000004021dd <stable_launch>:
  4021dd:	53                   	push   %rbx
  4021de:	48 89 3d 2b 43 00 00 	mov    %rdi,0x432b(%rip)        # 406510 <global_offset>
  4021e5:	41 b9 00 00 00 00    	mov    $0x0,%r9d
  4021eb:	41 b8 00 00 00 00    	mov    $0x0,%r8d
  4021f1:	b9 32 01 00 00       	mov    $0x132,%ecx
  4021f6:	ba 07 00 00 00       	mov    $0x7,%edx
  4021fb:	be 00 00 10 00       	mov    $0x100000,%esi
  402200:	bf 00 60 58 55       	mov    $0x55586000,%edi
  402205:	e8 a6 ee ff ff       	callq  4010b0 <mmap@plt>
  40220a:	48 89 c3             	mov    %rax,%rbx
  40220d:	48 3d 00 60 58 55    	cmp    $0x55586000,%rax
  402213:	75 43                	jne    402258 <stable_launch+0x7b>
  402215:	48 8d 90 f8 ff 0f 00 	lea    0xffff8(%rax),%rdx
  40221c:	48 89 15 e5 42 00 00 	mov    %rdx,0x42e5(%rip)        # 406508 <stack_top>
  402223:	48 89 e0             	mov    %rsp,%rax
  402226:	48 89 d4             	mov    %rdx,%rsp
  402229:	48 89 c2             	mov    %rax,%rdx
  40222c:	48 89 15 cd 42 00 00 	mov    %rdx,0x42cd(%rip)        # 406500 <global_save_stack>
  402233:	48 8b 3d d6 42 00 00 	mov    0x42d6(%rip),%rdi        # 406510 <global_offset>
  40223a:	e8 15 ff ff ff       	callq  402154 <launch>
  40223f:	48 8b 05 ba 42 00 00 	mov    0x42ba(%rip),%rax        # 406500 <global_save_stack>
  402246:	48 89 c4             	mov    %rax,%rsp
  402249:	be 00 00 10 00       	mov    $0x100000,%esi
  40224e:	48 89 df             	mov    %rbx,%rdi
  402251:	e8 3a ef ff ff       	callq  401190 <munmap@plt>
  402256:	5b                   	pop    %rbx
  402257:	c3                   	retq   
  402258:	be 00 00 10 00       	mov    $0x100000,%esi
  40225d:	48 89 c7             	mov    %rax,%rdi
  402260:	e8 2b ef ff ff       	callq  401190 <munmap@plt>
  402265:	ba 00 60 58 55       	mov    $0x55586000,%edx
  40226a:	48 8d 35 af 13 00 00 	lea    0x13af(%rip),%rsi        # 403620 <_IO_stdin_used+0x620>
  402271:	48 8b 3d 68 42 00 00 	mov    0x4268(%rip),%rdi        # 4064e0 <stderr@@GLIBC_2.2.5>
  402278:	b8 00 00 00 00       	mov    $0x0,%eax
  40227d:	e8 ae ee ff ff       	callq  401130 <fprintf@plt>
  402282:	bf 01 00 00 00       	mov    $0x1,%edi
  402287:	e8 74 ef ff ff       	callq  401200 <exit@plt>

000000000040228c <rio_readinitb>:
  40228c:	89 37                	mov    %esi,(%rdi)
  40228e:	c7 47 04 00 00 00 00 	movl   $0x0,0x4(%rdi)
  402295:	48 8d 47 10          	lea    0x10(%rdi),%rax
  402299:	48 89 47 08          	mov    %rax,0x8(%rdi)
  40229d:	c3                   	retq   

000000000040229e <sigalrm_handler>:
  40229e:	48 83 ec 08          	sub    $0x8,%rsp
  4022a2:	ba 00 00 00 00       	mov    $0x0,%edx
  4022a7:	48 8d 35 b2 13 00 00 	lea    0x13b2(%rip),%rsi        # 403660 <trans_char+0x10>
  4022ae:	48 8b 3d 2b 42 00 00 	mov    0x422b(%rip),%rdi        # 4064e0 <stderr@@GLIBC_2.2.5>
  4022b5:	b8 00 00 00 00       	mov    $0x0,%eax
  4022ba:	e8 71 ee ff ff       	callq  401130 <fprintf@plt>
  4022bf:	bf 01 00 00 00       	mov    $0x1,%edi
  4022c4:	e8 37 ef ff ff       	callq  401200 <exit@plt>

00000000004022c9 <urlencode>:
  4022c9:	41 54                	push   %r12
  4022cb:	55                   	push   %rbp
  4022cc:	53                   	push   %rbx
  4022cd:	48 83 ec 10          	sub    $0x10,%rsp
  4022d1:	48 89 fb             	mov    %rdi,%rbx
  4022d4:	48 89 f5             	mov    %rsi,%rbp
  4022d7:	e8 c4 ed ff ff       	callq  4010a0 <strlen@plt>
  4022dc:	eb 0e                	jmp    4022ec <urlencode+0x23>
  4022de:	88 55 00             	mov    %dl,0x0(%rbp)
  4022e1:	48 8d 6d 01          	lea    0x1(%rbp),%rbp
  4022e5:	48 83 c3 01          	add    $0x1,%rbx
  4022e9:	44 89 e0             	mov    %r12d,%eax
  4022ec:	44 8d 60 ff          	lea    -0x1(%rax),%r12d
  4022f0:	85 c0                	test   %eax,%eax
  4022f2:	0f 84 95 00 00 00    	je     40238d <urlencode+0xc4>
  4022f8:	0f b6 13             	movzbl (%rbx),%edx
  4022fb:	80 fa 2a             	cmp    $0x2a,%dl
  4022fe:	0f 94 c1             	sete   %cl
  402301:	80 fa 2d             	cmp    $0x2d,%dl
  402304:	0f 94 c0             	sete   %al
  402307:	08 c1                	or     %al,%cl
  402309:	75 d3                	jne    4022de <urlencode+0x15>
  40230b:	80 fa 2e             	cmp    $0x2e,%dl
  40230e:	74 ce                	je     4022de <urlencode+0x15>
  402310:	80 fa 5f             	cmp    $0x5f,%dl
  402313:	74 c9                	je     4022de <urlencode+0x15>
  402315:	8d 42 d0             	lea    -0x30(%rdx),%eax
  402318:	3c 09                	cmp    $0x9,%al
  40231a:	76 c2                	jbe    4022de <urlencode+0x15>
  40231c:	8d 42 bf             	lea    -0x41(%rdx),%eax
  40231f:	3c 19                	cmp    $0x19,%al
  402321:	76 bb                	jbe    4022de <urlencode+0x15>
  402323:	8d 42 9f             	lea    -0x61(%rdx),%eax
  402326:	3c 19                	cmp    $0x19,%al
  402328:	76 b4                	jbe    4022de <urlencode+0x15>
  40232a:	80 fa 20             	cmp    $0x20,%dl
  40232d:	74 4c                	je     40237b <urlencode+0xb2>
  40232f:	8d 42 e0             	lea    -0x20(%rdx),%eax
  402332:	3c 5f                	cmp    $0x5f,%al
  402334:	0f 96 c1             	setbe  %cl
  402337:	80 fa 09             	cmp    $0x9,%dl
  40233a:	0f 94 c0             	sete   %al
  40233d:	08 c1                	or     %al,%cl
  40233f:	74 47                	je     402388 <urlencode+0xbf>
  402341:	0f b6 d2             	movzbl %dl,%edx
  402344:	48 8d 7c 24 08       	lea    0x8(%rsp),%rdi
  402349:	48 8d 35 a5 13 00 00 	lea    0x13a5(%rip),%rsi        # 4036f5 <trans_char+0xa5>
  402350:	b8 00 00 00 00       	mov    $0x0,%eax
  402355:	e8 96 ee ff ff       	callq  4011f0 <sprintf@plt>
  40235a:	0f b6 44 24 08       	movzbl 0x8(%rsp),%eax
  40235f:	88 45 00             	mov    %al,0x0(%rbp)
  402362:	0f b6 44 24 09       	movzbl 0x9(%rsp),%eax
  402367:	88 45 01             	mov    %al,0x1(%rbp)
  40236a:	0f b6 44 24 0a       	movzbl 0xa(%rsp),%eax
  40236f:	88 45 02             	mov    %al,0x2(%rbp)
  402372:	48 8d 6d 03          	lea    0x3(%rbp),%rbp
  402376:	e9 6a ff ff ff       	jmpq   4022e5 <urlencode+0x1c>
  40237b:	c6 45 00 2b          	movb   $0x2b,0x0(%rbp)
  40237f:	48 8d 6d 01          	lea    0x1(%rbp),%rbp
  402383:	e9 5d ff ff ff       	jmpq   4022e5 <urlencode+0x1c>
  402388:	b8 ff ff ff ff       	mov    $0xffffffff,%eax
  40238d:	48 83 c4 10          	add    $0x10,%rsp
  402391:	5b                   	pop    %rbx
  402392:	5d                   	pop    %rbp
  402393:	41 5c                	pop    %r12
  402395:	c3                   	retq   

0000000000402396 <rio_writen>:
  402396:	41 55                	push   %r13
  402398:	41 54                	push   %r12
  40239a:	55                   	push   %rbp
  40239b:	53                   	push   %rbx
  40239c:	48 83 ec 08          	sub    $0x8,%rsp
  4023a0:	41 89 fc             	mov    %edi,%r12d
  4023a3:	48 89 f5             	mov    %rsi,%rbp
  4023a6:	49 89 d5             	mov    %rdx,%r13
  4023a9:	48 89 d3             	mov    %rdx,%rbx
  4023ac:	eb 06                	jmp    4023b4 <rio_writen+0x1e>
  4023ae:	48 29 c3             	sub    %rax,%rbx
  4023b1:	48 01 c5             	add    %rax,%rbp
  4023b4:	48 85 db             	test   %rbx,%rbx
  4023b7:	74 24                	je     4023dd <rio_writen+0x47>
  4023b9:	48 89 da             	mov    %rbx,%rdx
  4023bc:	48 89 ee             	mov    %rbp,%rsi
  4023bf:	44 89 e7             	mov    %r12d,%edi
  4023c2:	e8 c9 ec ff ff       	callq  401090 <write@plt>
  4023c7:	48 85 c0             	test   %rax,%rax
  4023ca:	7f e2                	jg     4023ae <rio_writen+0x18>
  4023cc:	e8 6f ec ff ff       	callq  401040 <__errno_location@plt>
  4023d1:	83 38 04             	cmpl   $0x4,(%rax)
  4023d4:	75 15                	jne    4023eb <rio_writen+0x55>
  4023d6:	b8 00 00 00 00       	mov    $0x0,%eax
  4023db:	eb d1                	jmp    4023ae <rio_writen+0x18>
  4023dd:	4c 89 e8             	mov    %r13,%rax
  4023e0:	48 83 c4 08          	add    $0x8,%rsp
  4023e4:	5b                   	pop    %rbx
  4023e5:	5d                   	pop    %rbp
  4023e6:	41 5c                	pop    %r12
  4023e8:	41 5d                	pop    %r13
  4023ea:	c3                   	retq   
  4023eb:	48 c7 c0 ff ff ff ff 	mov    $0xffffffffffffffff,%rax
  4023f2:	eb ec                	jmp    4023e0 <rio_writen+0x4a>

00000000004023f4 <rio_read>:
  4023f4:	41 55                	push   %r13
  4023f6:	41 54                	push   %r12
  4023f8:	55                   	push   %rbp
  4023f9:	53                   	push   %rbx
  4023fa:	48 83 ec 08          	sub    $0x8,%rsp
  4023fe:	48 89 fb             	mov    %rdi,%rbx
  402401:	49 89 f5             	mov    %rsi,%r13
  402404:	49 89 d4             	mov    %rdx,%r12
  402407:	eb 0a                	jmp    402413 <rio_read+0x1f>
  402409:	e8 32 ec ff ff       	callq  401040 <__errno_location@plt>
  40240e:	83 38 04             	cmpl   $0x4,(%rax)
  402411:	75 5a                	jne    40246d <rio_read+0x79>
  402413:	8b 6b 04             	mov    0x4(%rbx),%ebp
  402416:	85 ed                	test   %ebp,%ebp
  402418:	7f 22                	jg     40243c <rio_read+0x48>
  40241a:	48 8d 6b 10          	lea    0x10(%rbx),%rbp
  40241e:	ba 00 20 00 00       	mov    $0x2000,%edx
  402423:	48 89 ee             	mov    %rbp,%rsi
  402426:	8b 3b                	mov    (%rbx),%edi
  402428:	e8 d3 ec ff ff       	callq  401100 <read@plt>
  40242d:	89 43 04             	mov    %eax,0x4(%rbx)
  402430:	85 c0                	test   %eax,%eax
  402432:	78 d5                	js     402409 <rio_read+0x15>
  402434:	74 40                	je     402476 <rio_read+0x82>
  402436:	48 89 6b 08          	mov    %rbp,0x8(%rbx)
  40243a:	eb d7                	jmp    402413 <rio_read+0x1f>
  40243c:	89 e8                	mov    %ebp,%eax
  40243e:	4c 39 e0             	cmp    %r12,%rax
  402441:	72 03                	jb     402446 <rio_read+0x52>
  402443:	44 89 e5             	mov    %r12d,%ebp
  402446:	4c 63 e5             	movslq %ebp,%r12
  402449:	48 8b 73 08          	mov    0x8(%rbx),%rsi
  40244d:	4c 89 e2             	mov    %r12,%rdx
  402450:	4c 89 ef             	mov    %r13,%rdi
  402453:	e8 f8 ec ff ff       	callq  401150 <memcpy@plt>
  402458:	4c 01 63 08          	add    %r12,0x8(%rbx)
  40245c:	29 6b 04             	sub    %ebp,0x4(%rbx)
  40245f:	4c 89 e0             	mov    %r12,%rax
  402462:	48 83 c4 08          	add    $0x8,%rsp
  402466:	5b                   	pop    %rbx
  402467:	5d                   	pop    %rbp
  402468:	41 5c                	pop    %r12
  40246a:	41 5d                	pop    %r13
  40246c:	c3                   	retq   
  40246d:	48 c7 c0 ff ff ff ff 	mov    $0xffffffffffffffff,%rax
  402474:	eb ec                	jmp    402462 <rio_read+0x6e>
  402476:	b8 00 00 00 00       	mov    $0x0,%eax
  40247b:	eb e5                	jmp    402462 <rio_read+0x6e>

000000000040247d <rio_readlineb>:
  40247d:	41 55                	push   %r13
  40247f:	41 54                	push   %r12
  402481:	55                   	push   %rbp
  402482:	53                   	push   %rbx
  402483:	48 83 ec 18          	sub    $0x18,%rsp
  402487:	49 89 fd             	mov    %rdi,%r13
  40248a:	48 89 f5             	mov    %rsi,%rbp
  40248d:	49 89 d4             	mov    %rdx,%r12
  402490:	bb 01 00 00 00       	mov    $0x1,%ebx
  402495:	eb 18                	jmp    4024af <rio_readlineb+0x32>
  402497:	85 c0                	test   %eax,%eax
  402499:	75 55                	jne    4024f0 <rio_readlineb+0x73>
  40249b:	48 83 fb 01          	cmp    $0x1,%rbx
  40249f:	75 3d                	jne    4024de <rio_readlineb+0x61>
  4024a1:	b8 00 00 00 00       	mov    $0x0,%eax
  4024a6:	eb 3d                	jmp    4024e5 <rio_readlineb+0x68>
  4024a8:	48 83 c3 01          	add    $0x1,%rbx
  4024ac:	48 89 d5             	mov    %rdx,%rbp
  4024af:	4c 39 e3             	cmp    %r12,%rbx
  4024b2:	73 2a                	jae    4024de <rio_readlineb+0x61>
  4024b4:	48 8d 74 24 0f       	lea    0xf(%rsp),%rsi
  4024b9:	ba 01 00 00 00       	mov    $0x1,%edx
  4024be:	4c 89 ef             	mov    %r13,%rdi
  4024c1:	e8 2e ff ff ff       	callq  4023f4 <rio_read>
  4024c6:	83 f8 01             	cmp    $0x1,%eax
  4024c9:	75 cc                	jne    402497 <rio_readlineb+0x1a>
  4024cb:	48 8d 55 01          	lea    0x1(%rbp),%rdx
  4024cf:	0f b6 44 24 0f       	movzbl 0xf(%rsp),%eax
  4024d4:	88 45 00             	mov    %al,0x0(%rbp)
  4024d7:	3c 0a                	cmp    $0xa,%al
  4024d9:	75 cd                	jne    4024a8 <rio_readlineb+0x2b>
  4024db:	48 89 d5             	mov    %rdx,%rbp
  4024de:	c6 45 00 00          	movb   $0x0,0x0(%rbp)
  4024e2:	48 89 d8             	mov    %rbx,%rax
  4024e5:	48 83 c4 18          	add    $0x18,%rsp
  4024e9:	5b                   	pop    %rbx
  4024ea:	5d                   	pop    %rbp
  4024eb:	41 5c                	pop    %r12
  4024ed:	41 5d                	pop    %r13
  4024ef:	c3                   	retq   
  4024f0:	48 c7 c0 ff ff ff ff 	mov    $0xffffffffffffffff,%rax
  4024f7:	eb ec                	jmp    4024e5 <rio_readlineb+0x68>

00000000004024f9 <submitr>:
  4024f9:	41 57                	push   %r15
  4024fb:	41 56                	push   %r14
  4024fd:	41 55                	push   %r13
  4024ff:	41 54                	push   %r12
  402501:	55                   	push   %rbp
  402502:	53                   	push   %rbx
  402503:	48 81 ec 58 a0 00 00 	sub    $0xa058,%rsp
  40250a:	49 89 fc             	mov    %rdi,%r12
  40250d:	89 74 24 10          	mov    %esi,0x10(%rsp)
  402511:	49 89 d6             	mov    %rdx,%r14
  402514:	48 89 4c 24 08       	mov    %rcx,0x8(%rsp)
  402519:	4c 89 44 24 18       	mov    %r8,0x18(%rsp)
  40251e:	4d 89 cd             	mov    %r9,%r13
  402521:	48 8b ac 24 90 a0 00 	mov    0xa090(%rsp),%rbp
  402528:	00 
  402529:	c7 84 24 2c 20 00 00 	movl   $0x0,0x202c(%rsp)
  402530:	00 00 00 00 
  402534:	ba 00 00 00 00       	mov    $0x0,%edx
  402539:	be 01 00 00 00       	mov    $0x1,%esi
  40253e:	bf 02 00 00 00       	mov    $0x2,%edi
  402543:	e8 e8 ec ff ff       	callq  401230 <socket@plt>
  402548:	85 c0                	test   %eax,%eax
  40254a:	0f 88 6c 02 00 00    	js     4027bc <submitr+0x2c3>
  402550:	89 c3                	mov    %eax,%ebx
  402552:	4c 89 e7             	mov    %r12,%rdi
  402555:	e8 c6 eb ff ff       	callq  401120 <gethostbyname@plt>
  40255a:	48 85 c0             	test   %rax,%rax
  40255d:	0f 84 a5 02 00 00    	je     402808 <submitr+0x30f>
  402563:	4c 8d bc 24 40 a0 00 	lea    0xa040(%rsp),%r15
  40256a:	00 
  40256b:	48 c7 84 24 40 a0 00 	movq   $0x0,0xa040(%rsp)
  402572:	00 00 00 00 00 
  402577:	48 c7 84 24 48 a0 00 	movq   $0x0,0xa048(%rsp)
  40257e:	00 00 00 00 00 
  402583:	66 c7 84 24 40 a0 00 	movw   $0x2,0xa040(%rsp)
  40258a:	00 02 00 
  40258d:	48 8b 48 18          	mov    0x18(%rax),%rcx
  402591:	48 63 50 14          	movslq 0x14(%rax),%rdx
  402595:	48 8d bc 24 44 a0 00 	lea    0xa044(%rsp),%rdi
  40259c:	00 
  40259d:	48 8b 31             	mov    (%rcx),%rsi
  4025a0:	e8 fb eb ff ff       	callq  4011a0 <memmove@plt>
  4025a5:	0f b7 74 24 10       	movzwl 0x10(%rsp),%esi
  4025aa:	66 c1 c6 08          	rol    $0x8,%si
  4025ae:	66 89 b4 24 42 a0 00 	mov    %si,0xa042(%rsp)
  4025b5:	00 
  4025b6:	ba 10 00 00 00       	mov    $0x10,%edx
  4025bb:	4c 89 fe             	mov    %r15,%rsi
  4025be:	89 df                	mov    %ebx,%edi
  4025c0:	e8 4b ec ff ff       	callq  401210 <connect@plt>
  4025c5:	85 c0                	test   %eax,%eax
  4025c7:	0f 88 a3 02 00 00    	js     402870 <submitr+0x377>
  4025cd:	4c 89 ef             	mov    %r13,%rdi
  4025d0:	e8 cb ea ff ff       	callq  4010a0 <strlen@plt>
  4025d5:	49 89 c7             	mov    %rax,%r15
  4025d8:	4c 89 f7             	mov    %r14,%rdi
  4025db:	e8 c0 ea ff ff       	callq  4010a0 <strlen@plt>
  4025e0:	48 89 44 24 10       	mov    %rax,0x10(%rsp)
  4025e5:	48 8b 7c 24 08       	mov    0x8(%rsp),%rdi
  4025ea:	e8 b1 ea ff ff       	callq  4010a0 <strlen@plt>
  4025ef:	48 03 44 24 10       	add    0x10(%rsp),%rax
  4025f4:	48 89 44 24 10       	mov    %rax,0x10(%rsp)
  4025f9:	48 8b 7c 24 18       	mov    0x18(%rsp),%rdi
  4025fe:	e8 9d ea ff ff       	callq  4010a0 <strlen@plt>
  402603:	48 03 44 24 10       	add    0x10(%rsp),%rax
  402608:	4b 8d 14 7f          	lea    (%r15,%r15,2),%rdx
  40260c:	48 8d 84 10 80 00 00 	lea    0x80(%rax,%rdx,1),%rax
  402613:	00 
  402614:	48 3d 00 20 00 00    	cmp    $0x2000,%rax
  40261a:	0f 87 aa 02 00 00    	ja     4028ca <submitr+0x3d1>
  402620:	48 8d b4 24 30 40 00 	lea    0x4030(%rsp),%rsi
  402627:	00 
  402628:	b9 00 04 00 00       	mov    $0x400,%ecx
  40262d:	b8 00 00 00 00       	mov    $0x0,%eax
  402632:	48 89 f7             	mov    %rsi,%rdi
  402635:	f3 48 ab             	rep stos %rax,%es:(%rdi)
  402638:	4c 89 ef             	mov    %r13,%rdi
  40263b:	e8 89 fc ff ff       	callq  4022c9 <urlencode>
  402640:	85 c0                	test   %eax,%eax
  402642:	0f 88 f5 02 00 00    	js     40293d <submitr+0x444>
  402648:	4c 8d ac 24 30 60 00 	lea    0x6030(%rsp),%r13
  40264f:	00 
  402650:	4d 89 e1             	mov    %r12,%r9
  402653:	4c 8d 84 24 30 40 00 	lea    0x4030(%rsp),%r8
  40265a:	00 
  40265b:	4c 89 f1             	mov    %r14,%rcx
  40265e:	48 8b 54 24 08       	mov    0x8(%rsp),%rdx
  402663:	48 8d 35 1e 10 00 00 	lea    0x101e(%rip),%rsi        # 403688 <trans_char+0x38>
  40266a:	4c 89 ef             	mov    %r13,%rdi
  40266d:	b8 00 00 00 00       	mov    $0x0,%eax
  402672:	e8 79 eb ff ff       	callq  4011f0 <sprintf@plt>
  402677:	4c 89 ef             	mov    %r13,%rdi
  40267a:	e8 21 ea ff ff       	callq  4010a0 <strlen@plt>
  40267f:	48 89 c2             	mov    %rax,%rdx
  402682:	4c 89 ee             	mov    %r13,%rsi
  402685:	89 df                	mov    %ebx,%edi
  402687:	e8 0a fd ff ff       	callq  402396 <rio_writen>
  40268c:	48 85 c0             	test   %rax,%rax
  40268f:	0f 88 33 03 00 00    	js     4029c8 <submitr+0x4cf>
  402695:	4c 8d a4 24 30 80 00 	lea    0x8030(%rsp),%r12
  40269c:	00 
  40269d:	89 de                	mov    %ebx,%esi
  40269f:	4c 89 e7             	mov    %r12,%rdi
  4026a2:	e8 e5 fb ff ff       	callq  40228c <rio_readinitb>
  4026a7:	48 8d b4 24 30 60 00 	lea    0x6030(%rsp),%rsi
  4026ae:	00 
  4026af:	ba 00 20 00 00       	mov    $0x2000,%edx
  4026b4:	4c 89 e7             	mov    %r12,%rdi
  4026b7:	e8 c1 fd ff ff       	callq  40247d <rio_readlineb>
  4026bc:	48 85 c0             	test   %rax,%rax
  4026bf:	0f 8e 72 03 00 00    	jle    402a37 <submitr+0x53e>
  4026c5:	48 8d 8c 24 2c 20 00 	lea    0x202c(%rsp),%rcx
  4026cc:	00 
  4026cd:	48 8d 94 24 30 20 00 	lea    0x2030(%rsp),%rdx
  4026d4:	00 
  4026d5:	48 8d bc 24 30 60 00 	lea    0x6030(%rsp),%rdi
  4026dc:	00 
  4026dd:	4c 8d 44 24 20       	lea    0x20(%rsp),%r8
  4026e2:	48 8d 35 13 10 00 00 	lea    0x1013(%rip),%rsi        # 4036fc <trans_char+0xac>
  4026e9:	b8 00 00 00 00       	mov    $0x0,%eax
  4026ee:	e8 8d ea ff ff       	callq  401180 <__isoc99_sscanf@plt>
  4026f3:	48 8d b4 24 30 60 00 	lea    0x6030(%rsp),%rsi
  4026fa:	00 
  4026fb:	b9 03 00 00 00       	mov    $0x3,%ecx
  402700:	48 8d 3d 0c 10 00 00 	lea    0x100c(%rip),%rdi        # 403713 <trans_char+0xc3>
  402707:	f3 a6                	repz cmpsb %es:(%rdi),%ds:(%rsi)
  402709:	0f 97 c0             	seta   %al
  40270c:	1c 00                	sbb    $0x0,%al
  40270e:	84 c0                	test   %al,%al
  402710:	0f 84 9f 03 00 00    	je     402ab5 <submitr+0x5bc>
  402716:	48 8d b4 24 30 60 00 	lea    0x6030(%rsp),%rsi
  40271d:	00 
  40271e:	48 8d bc 24 30 80 00 	lea    0x8030(%rsp),%rdi
  402725:	00 
  402726:	ba 00 20 00 00       	mov    $0x2000,%edx
  40272b:	e8 4d fd ff ff       	callq  40247d <rio_readlineb>
  402730:	48 85 c0             	test   %rax,%rax
  402733:	7f be                	jg     4026f3 <submitr+0x1fa>
  402735:	48 b8 45 72 72 6f 72 	movabs $0x43203a726f727245,%rax
  40273c:	3a 20 43 
  40273f:	48 ba 6c 69 65 6e 74 	movabs $0x6e7520746e65696c,%rdx
  402746:	20 75 6e 
  402749:	48 89 45 00          	mov    %rax,0x0(%rbp)
  40274d:	48 89 55 08          	mov    %rdx,0x8(%rbp)
  402751:	48 b8 61 62 6c 65 20 	movabs $0x206f7420656c6261,%rax
  402758:	74 6f 20 
  40275b:	48 ba 72 65 61 64 20 	movabs $0x6165682064616572,%rdx
  402762:	68 65 61 
  402765:	48 89 45 10          	mov    %rax,0x10(%rbp)
  402769:	48 89 55 18          	mov    %rdx,0x18(%rbp)
  40276d:	48 b8 64 65 72 73 20 	movabs $0x6f72662073726564,%rax
  402774:	66 72 6f 
  402777:	48 ba 6d 20 74 68 65 	movabs $0x657220656874206d,%rdx
  40277e:	20 72 65 
  402781:	48 89 45 20          	mov    %rax,0x20(%rbp)
  402785:	48 89 55 28          	mov    %rdx,0x28(%rbp)
  402789:	48 b8 73 75 6c 74 20 	movabs $0x72657320746c7573,%rax
  402790:	73 65 72 
  402793:	48 89 45 30          	mov    %rax,0x30(%rbp)
  402797:	c7 45 38 76 65 72 00 	movl   $0x726576,0x38(%rbp)
  40279e:	89 df                	mov    %ebx,%edi
  4027a0:	e8 4b e9 ff ff       	callq  4010f0 <close@plt>
  4027a5:	b8 ff ff ff ff       	mov    $0xffffffff,%eax
  4027aa:	48 81 c4 58 a0 00 00 	add    $0xa058,%rsp
  4027b1:	5b                   	pop    %rbx
  4027b2:	5d                   	pop    %rbp
  4027b3:	41 5c                	pop    %r12
  4027b5:	41 5d                	pop    %r13
  4027b7:	41 5e                	pop    %r14
  4027b9:	41 5f                	pop    %r15
  4027bb:	c3                   	retq   
  4027bc:	48 b8 45 72 72 6f 72 	movabs $0x43203a726f727245,%rax
  4027c3:	3a 20 43 
  4027c6:	48 ba 6c 69 65 6e 74 	movabs $0x6e7520746e65696c,%rdx
  4027cd:	20 75 6e 
  4027d0:	48 89 45 00          	mov    %rax,0x0(%rbp)
  4027d4:	48 89 55 08          	mov    %rdx,0x8(%rbp)
  4027d8:	48 b8 61 62 6c 65 20 	movabs $0x206f7420656c6261,%rax
  4027df:	74 6f 20 
  4027e2:	48 ba 63 72 65 61 74 	movabs $0x7320657461657263,%rdx
  4027e9:	65 20 73 
  4027ec:	48 89 45 10          	mov    %rax,0x10(%rbp)
  4027f0:	48 89 55 18          	mov    %rdx,0x18(%rbp)
  4027f4:	c7 45 20 6f 63 6b 65 	movl   $0x656b636f,0x20(%rbp)
  4027fb:	66 c7 45 24 74 00    	movw   $0x74,0x24(%rbp)
  402801:	b8 ff ff ff ff       	mov    $0xffffffff,%eax
  402806:	eb a2                	jmp    4027aa <submitr+0x2b1>
  402808:	48 b8 45 72 72 6f 72 	movabs $0x44203a726f727245,%rax
  40280f:	3a 20 44 
  402812:	48 ba 4e 53 20 69 73 	movabs $0x6e7520736920534e,%rdx
  402819:	20 75 6e 
  40281c:	48 89 45 00          	mov    %rax,0x0(%rbp)
  402820:	48 89 55 08          	mov    %rdx,0x8(%rbp)
  402824:	48 b8 61 62 6c 65 20 	movabs $0x206f7420656c6261,%rax
  40282b:	74 6f 20 
  40282e:	48 ba 72 65 73 6f 6c 	movabs $0x2065766c6f736572,%rdx
  402835:	76 65 20 
  402838:	48 89 45 10          	mov    %rax,0x10(%rbp)
  40283c:	48 89 55 18          	mov    %rdx,0x18(%rbp)
  402840:	48 b8 73 65 72 76 65 	movabs $0x6120726576726573,%rax
  402847:	72 20 61 
  40284a:	48 89 45 20          	mov    %rax,0x20(%rbp)
  40284e:	c7 45 28 64 64 72 65 	movl   $0x65726464,0x28(%rbp)
  402855:	66 c7 45 2c 73 73    	movw   $0x7373,0x2c(%rbp)
  40285b:	c6 45 2e 00          	movb   $0x0,0x2e(%rbp)
  40285f:	89 df                	mov    %ebx,%edi
  402861:	e8 8a e8 ff ff       	callq  4010f0 <close@plt>
  402866:	b8 ff ff ff ff       	mov    $0xffffffff,%eax
  40286b:	e9 3a ff ff ff       	jmpq   4027aa <submitr+0x2b1>
  402870:	48 b8 45 72 72 6f 72 	movabs $0x55203a726f727245,%rax
  402877:	3a 20 55 
  40287a:	48 ba 6e 61 62 6c 65 	movabs $0x6f7420656c62616e,%rdx
  402881:	20 74 6f 
  402884:	48 89 45 00          	mov    %rax,0x0(%rbp)
  402888:	48 89 55 08          	mov    %rdx,0x8(%rbp)
  40288c:	48 b8 20 63 6f 6e 6e 	movabs $0x7463656e6e6f6320,%rax
  402893:	65 63 74 
  402896:	48 ba 20 74 6f 20 74 	movabs $0x20656874206f7420,%rdx
  40289d:	68 65 20 
  4028a0:	48 89 45 10          	mov    %rax,0x10(%rbp)
  4028a4:	48 89 55 18          	mov    %rdx,0x18(%rbp)
  4028a8:	c7 45 20 73 65 72 76 	movl   $0x76726573,0x20(%rbp)
  4028af:	66 c7 45 24 65 72    	movw   $0x7265,0x24(%rbp)
  4028b5:	c6 45 26 00          	movb   $0x0,0x26(%rbp)
  4028b9:	89 df                	mov    %ebx,%edi
  4028bb:	e8 30 e8 ff ff       	callq  4010f0 <close@plt>
  4028c0:	b8 ff ff ff ff       	mov    $0xffffffff,%eax
  4028c5:	e9 e0 fe ff ff       	jmpq   4027aa <submitr+0x2b1>
  4028ca:	48 b8 45 72 72 6f 72 	movabs $0x52203a726f727245,%rax
  4028d1:	3a 20 52 
  4028d4:	48 ba 65 73 75 6c 74 	movabs $0x747320746c757365,%rdx
  4028db:	20 73 74 
  4028de:	48 89 45 00          	mov    %rax,0x0(%rbp)
  4028e2:	48 89 55 08          	mov    %rdx,0x8(%rbp)
  4028e6:	48 b8 72 69 6e 67 20 	movabs $0x6f6f7420676e6972,%rax
  4028ed:	74 6f 6f 
  4028f0:	48 ba 20 6c 61 72 67 	movabs $0x202e656772616c20,%rdx
  4028f7:	65 2e 20 
  4028fa:	48 89 45 10          	mov    %rax,0x10(%rbp)
  4028fe:	48 89 55 18          	mov    %rdx,0x18(%rbp)
  402902:	48 b8 49 6e 63 72 65 	movabs $0x6573616572636e49,%rax
  402909:	61 73 65 
  40290c:	48 ba 20 53 55 42 4d 	movabs $0x5254494d42555320,%rdx
  402913:	49 54 52 
  402916:	48 89 45 20          	mov    %rax,0x20(%rbp)
  40291a:	48 89 55 28          	mov    %rdx,0x28(%rbp)
  40291e:	48 b8 5f 4d 41 58 42 	movabs $0x46554258414d5f,%rax
  402925:	55 46 00 
  402928:	48 89 45 30          	mov    %rax,0x30(%rbp)
  40292c:	89 df                	mov    %ebx,%edi
  40292e:	e8 bd e7 ff ff       	callq  4010f0 <close@plt>
  402933:	b8 ff ff ff ff       	mov    $0xffffffff,%eax
  402938:	e9 6d fe ff ff       	jmpq   4027aa <submitr+0x2b1>
  40293d:	48 b8 45 72 72 6f 72 	movabs $0x52203a726f727245,%rax
  402944:	3a 20 52 
  402947:	48 ba 65 73 75 6c 74 	movabs $0x747320746c757365,%rdx
  40294e:	20 73 74 
  402951:	48 89 45 00          	mov    %rax,0x0(%rbp)
  402955:	48 89 55 08          	mov    %rdx,0x8(%rbp)
  402959:	48 b8 72 69 6e 67 20 	movabs $0x6e6f6320676e6972,%rax
  402960:	63 6f 6e 
  402963:	48 ba 74 61 69 6e 73 	movabs $0x6e6120736e696174,%rdx
  40296a:	20 61 6e 
  40296d:	48 89 45 10          	mov    %rax,0x10(%rbp)
  402971:	48 89 55 18          	mov    %rdx,0x18(%rbp)
  402975:	48 b8 20 69 6c 6c 65 	movabs $0x6c6167656c6c6920,%rax
  40297c:	67 61 6c 
  40297f:	48 ba 20 6f 72 20 75 	movabs $0x72706e7520726f20,%rdx
  402986:	6e 70 72 
  402989:	48 89 45 20          	mov    %rax,0x20(%rbp)
  40298d:	48 89 55 28          	mov    %rdx,0x28(%rbp)
  402991:	48 b8 69 6e 74 61 62 	movabs $0x20656c6261746e69,%rax
  402998:	6c 65 20 
  40299b:	48 ba 63 68 61 72 61 	movabs $0x6574636172616863,%rdx
  4029a2:	63 74 65 
  4029a5:	48 89 45 30          	mov    %rax,0x30(%rbp)
  4029a9:	48 89 55 38          	mov    %rdx,0x38(%rbp)
  4029ad:	66 c7 45 40 72 2e    	movw   $0x2e72,0x40(%rbp)
  4029b3:	c6 45 42 00          	movb   $0x0,0x42(%rbp)
  4029b7:	89 df                	mov    %ebx,%edi
  4029b9:	e8 32 e7 ff ff       	callq  4010f0 <close@plt>
  4029be:	b8 ff ff ff ff       	mov    $0xffffffff,%eax
  4029c3:	e9 e2 fd ff ff       	jmpq   4027aa <submitr+0x2b1>
  4029c8:	48 b8 45 72 72 6f 72 	movabs $0x43203a726f727245,%rax
  4029cf:	3a 20 43 
  4029d2:	48 ba 6c 69 65 6e 74 	movabs $0x6e7520746e65696c,%rdx
  4029d9:	20 75 6e 
  4029dc:	48 89 45 00          	mov    %rax,0x0(%rbp)
  4029e0:	48 89 55 08          	mov    %rdx,0x8(%rbp)
  4029e4:	48 b8 61 62 6c 65 20 	movabs $0x206f7420656c6261,%rax
  4029eb:	74 6f 20 
  4029ee:	48 ba 77 72 69 74 65 	movabs $0x6f74206574697277,%rdx
  4029f5:	20 74 6f 
  4029f8:	48 89 45 10          	mov    %rax,0x10(%rbp)
  4029fc:	48 89 55 18          	mov    %rdx,0x18(%rbp)
  402a00:	48 b8 20 74 68 65 20 	movabs $0x7365722065687420,%rax
  402a07:	72 65 73 
  402a0a:	48 ba 75 6c 74 20 73 	movabs $0x7672657320746c75,%rdx
  402a11:	65 72 76 
  402a14:	48 89 45 20          	mov    %rax,0x20(%rbp)
  402a18:	48 89 55 28          	mov    %rdx,0x28(%rbp)
  402a1c:	66 c7 45 30 65 72    	movw   $0x7265,0x30(%rbp)
  402a22:	c6 45 32 00          	movb   $0x0,0x32(%rbp)
  402a26:	89 df                	mov    %ebx,%edi
  402a28:	e8 c3 e6 ff ff       	callq  4010f0 <close@plt>
  402a2d:	b8 ff ff ff ff       	mov    $0xffffffff,%eax
  402a32:	e9 73 fd ff ff       	jmpq   4027aa <submitr+0x2b1>
  402a37:	48 b8 45 72 72 6f 72 	movabs $0x43203a726f727245,%rax
  402a3e:	3a 20 43 
  402a41:	48 ba 6c 69 65 6e 74 	movabs $0x6e7520746e65696c,%rdx
  402a48:	20 75 6e 
  402a4b:	48 89 45 00          	mov    %rax,0x0(%rbp)
  402a4f:	48 89 55 08          	mov    %rdx,0x8(%rbp)
  402a53:	48 b8 61 62 6c 65 20 	movabs $0x206f7420656c6261,%rax
  402a5a:	74 6f 20 
  402a5d:	48 ba 72 65 61 64 20 	movabs $0x7269662064616572,%rdx
  402a64:	66 69 72 
  402a67:	48 89 45 10          	mov    %rax,0x10(%rbp)
  402a6b:	48 89 55 18          	mov    %rdx,0x18(%rbp)
  402a6f:	48 b8 73 74 20 68 65 	movabs $0x6564616568207473,%rax
  402a76:	61 64 65 
  402a79:	48 ba 72 20 66 72 6f 	movabs $0x72206d6f72662072,%rdx
  402a80:	6d 20 72 
  402a83:	48 89 45 20          	mov    %rax,0x20(%rbp)
  402a87:	48 89 55 28          	mov    %rdx,0x28(%rbp)
  402a8b:	48 b8 65 73 75 6c 74 	movabs $0x657320746c757365,%rax
  402a92:	20 73 65 
  402a95:	48 89 45 30          	mov    %rax,0x30(%rbp)
  402a99:	c7 45 38 72 76 65 72 	movl   $0x72657672,0x38(%rbp)
  402aa0:	c6 45 3c 00          	movb   $0x0,0x3c(%rbp)
  402aa4:	89 df                	mov    %ebx,%edi
  402aa6:	e8 45 e6 ff ff       	callq  4010f0 <close@plt>
  402aab:	b8 ff ff ff ff       	mov    $0xffffffff,%eax
  402ab0:	e9 f5 fc ff ff       	jmpq   4027aa <submitr+0x2b1>
  402ab5:	48 8d b4 24 30 60 00 	lea    0x6030(%rsp),%rsi
  402abc:	00 
  402abd:	48 8d bc 24 30 80 00 	lea    0x8030(%rsp),%rdi
  402ac4:	00 
  402ac5:	ba 00 20 00 00       	mov    $0x2000,%edx
  402aca:	e8 ae f9 ff ff       	callq  40247d <rio_readlineb>
  402acf:	48 85 c0             	test   %rax,%rax
  402ad2:	0f 8e 97 00 00 00    	jle    402b6f <submitr+0x676>
  402ad8:	8b 94 24 2c 20 00 00 	mov    0x202c(%rsp),%edx
  402adf:	81 fa c8 00 00 00    	cmp    $0xc8,%edx
  402ae5:	0f 85 08 01 00 00    	jne    402bf3 <submitr+0x6fa>
  402aeb:	48 8d b4 24 30 60 00 	lea    0x6030(%rsp),%rsi
  402af2:	00 
  402af3:	48 89 ef             	mov    %rbp,%rdi
  402af6:	e8 75 e5 ff ff       	callq  401070 <strcpy@plt>
  402afb:	89 df                	mov    %ebx,%edi
  402afd:	e8 ee e5 ff ff       	callq  4010f0 <close@plt>
  402b02:	b9 04 00 00 00       	mov    $0x4,%ecx
  402b07:	48 8d 3d ff 0b 00 00 	lea    0xbff(%rip),%rdi        # 40370d <trans_char+0xbd>
  402b0e:	48 89 ee             	mov    %rbp,%rsi
  402b11:	f3 a6                	repz cmpsb %es:(%rdi),%ds:(%rsi)
  402b13:	0f 97 c0             	seta   %al
  402b16:	1c 00                	sbb    $0x0,%al
  402b18:	0f be c0             	movsbl %al,%eax
  402b1b:	85 c0                	test   %eax,%eax
  402b1d:	0f 84 87 fc ff ff    	je     4027aa <submitr+0x2b1>
  402b23:	b9 05 00 00 00       	mov    $0x5,%ecx
  402b28:	48 8d 3d e2 0b 00 00 	lea    0xbe2(%rip),%rdi        # 403711 <trans_char+0xc1>
  402b2f:	48 89 ee             	mov    %rbp,%rsi
  402b32:	f3 a6                	repz cmpsb %es:(%rdi),%ds:(%rsi)
  402b34:	0f 97 c0             	seta   %al
  402b37:	1c 00                	sbb    $0x0,%al
  402b39:	0f be c0             	movsbl %al,%eax
  402b3c:	85 c0                	test   %eax,%eax
  402b3e:	0f 84 66 fc ff ff    	je     4027aa <submitr+0x2b1>
  402b44:	b9 03 00 00 00       	mov    $0x3,%ecx
  402b49:	48 8d 3d c6 0b 00 00 	lea    0xbc6(%rip),%rdi        # 403716 <trans_char+0xc6>
  402b50:	48 89 ee             	mov    %rbp,%rsi
  402b53:	f3 a6                	repz cmpsb %es:(%rdi),%ds:(%rsi)
  402b55:	0f 97 c0             	seta   %al
  402b58:	1c 00                	sbb    $0x0,%al
  402b5a:	0f be c0             	movsbl %al,%eax
  402b5d:	85 c0                	test   %eax,%eax
  402b5f:	0f 84 45 fc ff ff    	je     4027aa <submitr+0x2b1>
  402b65:	b8 ff ff ff ff       	mov    $0xffffffff,%eax
  402b6a:	e9 3b fc ff ff       	jmpq   4027aa <submitr+0x2b1>
  402b6f:	48 b8 45 72 72 6f 72 	movabs $0x43203a726f727245,%rax
  402b76:	3a 20 43 
  402b79:	48 ba 6c 69 65 6e 74 	movabs $0x6e7520746e65696c,%rdx
  402b80:	20 75 6e 
  402b83:	48 89 45 00          	mov    %rax,0x0(%rbp)
  402b87:	48 89 55 08          	mov    %rdx,0x8(%rbp)
  402b8b:	48 b8 61 62 6c 65 20 	movabs $0x206f7420656c6261,%rax
  402b92:	74 6f 20 
  402b95:	48 ba 72 65 61 64 20 	movabs $0x6174732064616572,%rdx
  402b9c:	73 74 61 
  402b9f:	48 89 45 10          	mov    %rax,0x10(%rbp)
  402ba3:	48 89 55 18          	mov    %rdx,0x18(%rbp)
  402ba7:	48 b8 74 75 73 20 6d 	movabs $0x7373656d20737574,%rax
  402bae:	65 73 73 
  402bb1:	48 ba 61 67 65 20 66 	movabs $0x6d6f726620656761,%rdx
  402bb8:	72 6f 6d 
  402bbb:	48 89 45 20          	mov    %rax,0x20(%rbp)
  402bbf:	48 89 55 28          	mov    %rdx,0x28(%rbp)
  402bc3:	48 b8 20 72 65 73 75 	movabs $0x20746c7573657220,%rax
  402bca:	6c 74 20 
  402bcd:	48 89 45 30          	mov    %rax,0x30(%rbp)
  402bd1:	c7 45 38 73 65 72 76 	movl   $0x76726573,0x38(%rbp)
  402bd8:	66 c7 45 3c 65 72    	movw   $0x7265,0x3c(%rbp)
  402bde:	c6 45 3e 00          	movb   $0x0,0x3e(%rbp)
  402be2:	89 df                	mov    %ebx,%edi
  402be4:	e8 07 e5 ff ff       	callq  4010f0 <close@plt>
  402be9:	b8 ff ff ff ff       	mov    $0xffffffff,%eax
  402bee:	e9 b7 fb ff ff       	jmpq   4027aa <submitr+0x2b1>
  402bf3:	48 8d 4c 24 20       	lea    0x20(%rsp),%rcx
  402bf8:	48 8d 35 c9 0a 00 00 	lea    0xac9(%rip),%rsi        # 4036c8 <trans_char+0x78>
  402bff:	48 89 ef             	mov    %rbp,%rdi
  402c02:	b8 00 00 00 00       	mov    $0x0,%eax
  402c07:	e8 e4 e5 ff ff       	callq  4011f0 <sprintf@plt>
  402c0c:	89 df                	mov    %ebx,%edi
  402c0e:	e8 dd e4 ff ff       	callq  4010f0 <close@plt>
  402c13:	b8 ff ff ff ff       	mov    $0xffffffff,%eax
  402c18:	e9 8d fb ff ff       	jmpq   4027aa <submitr+0x2b1>

0000000000402c1d <init_timeout>:
  402c1d:	85 ff                	test   %edi,%edi
  402c1f:	74 26                	je     402c47 <init_timeout+0x2a>
  402c21:	53                   	push   %rbx
  402c22:	89 fb                	mov    %edi,%ebx
  402c24:	78 1a                	js     402c40 <init_timeout+0x23>
  402c26:	48 8d 35 71 f6 ff ff 	lea    -0x98f(%rip),%rsi        # 40229e <sigalrm_handler>
  402c2d:	bf 0e 00 00 00       	mov    $0xe,%edi
  402c32:	e8 d9 e4 ff ff       	callq  401110 <signal@plt>
  402c37:	89 df                	mov    %ebx,%edi
  402c39:	e8 a2 e4 ff ff       	callq  4010e0 <alarm@plt>
  402c3e:	5b                   	pop    %rbx
  402c3f:	c3                   	retq   
  402c40:	bb 00 00 00 00       	mov    $0x0,%ebx
  402c45:	eb df                	jmp    402c26 <init_timeout+0x9>
  402c47:	c3                   	retq   

0000000000402c48 <init_driver>:
  402c48:	41 54                	push   %r12
  402c4a:	55                   	push   %rbp
  402c4b:	53                   	push   %rbx
  402c4c:	48 83 ec 10          	sub    $0x10,%rsp
  402c50:	48 89 fd             	mov    %rdi,%rbp
  402c53:	be 01 00 00 00       	mov    $0x1,%esi
  402c58:	bf 0d 00 00 00       	mov    $0xd,%edi
  402c5d:	e8 ae e4 ff ff       	callq  401110 <signal@plt>
  402c62:	be 01 00 00 00       	mov    $0x1,%esi
  402c67:	bf 1d 00 00 00       	mov    $0x1d,%edi
  402c6c:	e8 9f e4 ff ff       	callq  401110 <signal@plt>
  402c71:	be 01 00 00 00       	mov    $0x1,%esi
  402c76:	bf 1d 00 00 00       	mov    $0x1d,%edi
  402c7b:	e8 90 e4 ff ff       	callq  401110 <signal@plt>
  402c80:	ba 00 00 00 00       	mov    $0x0,%edx
  402c85:	be 01 00 00 00       	mov    $0x1,%esi
  402c8a:	bf 02 00 00 00       	mov    $0x2,%edi
  402c8f:	e8 9c e5 ff ff       	callq  401230 <socket@plt>
  402c94:	85 c0                	test   %eax,%eax
  402c96:	0f 88 83 00 00 00    	js     402d1f <init_driver+0xd7>
  402c9c:	89 c3                	mov    %eax,%ebx
  402c9e:	48 8d 3d 74 0a 00 00 	lea    0xa74(%rip),%rdi        # 403719 <trans_char+0xc9>
  402ca5:	e8 76 e4 ff ff       	callq  401120 <gethostbyname@plt>
  402caa:	48 85 c0             	test   %rax,%rax
  402cad:	0f 84 b8 00 00 00    	je     402d6b <init_driver+0x123>
  402cb3:	49 89 e4             	mov    %rsp,%r12
  402cb6:	48 c7 04 24 00 00 00 	movq   $0x0,(%rsp)
  402cbd:	00 
  402cbe:	48 c7 44 24 08 00 00 	movq   $0x0,0x8(%rsp)
  402cc5:	00 00 
  402cc7:	66 c7 04 24 02 00    	movw   $0x2,(%rsp)
  402ccd:	48 8b 48 18          	mov    0x18(%rax),%rcx
  402cd1:	48 63 50 14          	movslq 0x14(%rax),%rdx
  402cd5:	48 8d 7c 24 04       	lea    0x4(%rsp),%rdi
  402cda:	48 8b 31             	mov    (%rcx),%rsi
  402cdd:	e8 be e4 ff ff       	callq  4011a0 <memmove@plt>
  402ce2:	66 c7 44 24 02 3c 9a 	movw   $0x9a3c,0x2(%rsp)
  402ce9:	ba 10 00 00 00       	mov    $0x10,%edx
  402cee:	4c 89 e6             	mov    %r12,%rsi
  402cf1:	89 df                	mov    %ebx,%edi
  402cf3:	e8 18 e5 ff ff       	callq  401210 <connect@plt>
  402cf8:	85 c0                	test   %eax,%eax
  402cfa:	0f 88 d3 00 00 00    	js     402dd3 <init_driver+0x18b>
  402d00:	89 df                	mov    %ebx,%edi
  402d02:	e8 e9 e3 ff ff       	callq  4010f0 <close@plt>
  402d07:	66 c7 45 00 4f 4b    	movw   $0x4b4f,0x0(%rbp)
  402d0d:	c6 45 02 00          	movb   $0x0,0x2(%rbp)
  402d11:	b8 00 00 00 00       	mov    $0x0,%eax
  402d16:	48 83 c4 10          	add    $0x10,%rsp
  402d1a:	5b                   	pop    %rbx
  402d1b:	5d                   	pop    %rbp
  402d1c:	41 5c                	pop    %r12
  402d1e:	c3                   	retq   
  402d1f:	48 b8 45 72 72 6f 72 	movabs $0x43203a726f727245,%rax
  402d26:	3a 20 43 
  402d29:	48 ba 6c 69 65 6e 74 	movabs $0x6e7520746e65696c,%rdx
  402d30:	20 75 6e 
  402d33:	48 89 45 00          	mov    %rax,0x0(%rbp)
  402d37:	48 89 55 08          	mov    %rdx,0x8(%rbp)
  402d3b:	48 b8 61 62 6c 65 20 	movabs $0x206f7420656c6261,%rax
  402d42:	74 6f 20 
  402d45:	48 ba 63 72 65 61 74 	movabs $0x7320657461657263,%rdx
  402d4c:	65 20 73 
  402d4f:	48 89 45 10          	mov    %rax,0x10(%rbp)
  402d53:	48 89 55 18          	mov    %rdx,0x18(%rbp)
  402d57:	c7 45 20 6f 63 6b 65 	movl   $0x656b636f,0x20(%rbp)
  402d5e:	66 c7 45 24 74 00    	movw   $0x74,0x24(%rbp)
  402d64:	b8 ff ff ff ff       	mov    $0xffffffff,%eax
  402d69:	eb ab                	jmp    402d16 <init_driver+0xce>
  402d6b:	48 b8 45 72 72 6f 72 	movabs $0x44203a726f727245,%rax
  402d72:	3a 20 44 
  402d75:	48 ba 4e 53 20 69 73 	movabs $0x6e7520736920534e,%rdx
  402d7c:	20 75 6e 
  402d7f:	48 89 45 00          	mov    %rax,0x0(%rbp)
  402d83:	48 89 55 08          	mov    %rdx,0x8(%rbp)
  402d87:	48 b8 61 62 6c 65 20 	movabs $0x206f7420656c6261,%rax
  402d8e:	74 6f 20 
  402d91:	48 ba 72 65 73 6f 6c 	movabs $0x2065766c6f736572,%rdx
  402d98:	76 65 20 
  402d9b:	48 89 45 10          	mov    %rax,0x10(%rbp)
  402d9f:	48 89 55 18          	mov    %rdx,0x18(%rbp)
  402da3:	48 b8 73 65 72 76 65 	movabs $0x6120726576726573,%rax
  402daa:	72 20 61 
  402dad:	48 89 45 20          	mov    %rax,0x20(%rbp)
  402db1:	c7 45 28 64 64 72 65 	movl   $0x65726464,0x28(%rbp)
  402db8:	66 c7 45 2c 73 73    	movw   $0x7373,0x2c(%rbp)
  402dbe:	c6 45 2e 00          	movb   $0x0,0x2e(%rbp)
  402dc2:	89 df                	mov    %ebx,%edi
  402dc4:	e8 27 e3 ff ff       	callq  4010f0 <close@plt>
  402dc9:	b8 ff ff ff ff       	mov    $0xffffffff,%eax
  402dce:	e9 43 ff ff ff       	jmpq   402d16 <init_driver+0xce>
  402dd3:	48 b8 63 68 61 6e 67 	movabs $0x656d65676e616863,%rax
  402dda:	65 6d 65 
  402ddd:	48 ba 2e 79 6f 75 72 	movabs $0x68637372756f792e,%rdx
  402de4:	73 63 68 
  402de7:	48 89 45 00          	mov    %rax,0x0(%rbp)
  402deb:	48 89 55 08          	mov    %rdx,0x8(%rbp)
  402def:	48 b8 6f 6f 6c 2e 65 	movabs $0x7564652e6c6f6f,%rax
  402df6:	64 75 00 
  402df9:	48 89 45 10          	mov    %rax,0x10(%rbp)
  402dfd:	48 b8 45 72 72 6f 72 	movabs $0x55203a726f727245,%rax
  402e04:	3a 20 55 
  402e07:	48 ba 6e 61 62 6c 65 	movabs $0x6f7420656c62616e,%rdx
  402e0e:	20 74 6f 
  402e11:	48 89 45 00          	mov    %rax,0x0(%rbp)
  402e15:	48 89 55 08          	mov    %rdx,0x8(%rbp)
  402e19:	48 b8 20 63 6f 6e 6e 	movabs $0x7463656e6e6f6320,%rax
  402e20:	65 63 74 
  402e23:	48 ba 20 74 6f 20 73 	movabs $0x76726573206f7420,%rdx
  402e2a:	65 72 76 
  402e2d:	48 89 45 10          	mov    %rax,0x10(%rbp)
  402e31:	48 89 55 18          	mov    %rdx,0x18(%rbp)
  402e35:	66 c7 45 20 65 72    	movw   $0x7265,0x20(%rbp)
  402e3b:	c6 45 22 00          	movb   $0x0,0x22(%rbp)
  402e3f:	89 df                	mov    %ebx,%edi
  402e41:	e8 aa e2 ff ff       	callq  4010f0 <close@plt>
  402e46:	b8 ff ff ff ff       	mov    $0xffffffff,%eax
  402e4b:	e9 c6 fe ff ff       	jmpq   402d16 <init_driver+0xce>

0000000000402e50 <driver_post>:
  402e50:	53                   	push   %rbx
  402e51:	4c 89 cb             	mov    %r9,%rbx
  402e54:	45 85 c0             	test   %r8d,%r8d
  402e57:	75 18                	jne    402e71 <driver_post+0x21>
  402e59:	48 85 ff             	test   %rdi,%rdi
  402e5c:	74 05                	je     402e63 <driver_post+0x13>
  402e5e:	80 3f 00             	cmpb   $0x0,(%rdi)
  402e61:	75 32                	jne    402e95 <driver_post+0x45>
  402e63:	66 c7 03 4f 4b       	movw   $0x4b4f,(%rbx)
  402e68:	c6 43 02 00          	movb   $0x0,0x2(%rbx)
  402e6c:	44 89 c0             	mov    %r8d,%eax
  402e6f:	5b                   	pop    %rbx
  402e70:	c3                   	retq   
  402e71:	48 89 ce             	mov    %rcx,%rsi
  402e74:	48 8d 3d b6 08 00 00 	lea    0x8b6(%rip),%rdi        # 403731 <trans_char+0xe1>
  402e7b:	b8 00 00 00 00       	mov    $0x0,%eax
  402e80:	e8 3b e2 ff ff       	callq  4010c0 <printf@plt>
  402e85:	66 c7 03 4f 4b       	movw   $0x4b4f,(%rbx)
  402e8a:	c6 43 02 00          	movb   $0x0,0x2(%rbx)
  402e8e:	b8 00 00 00 00       	mov    $0x0,%eax
  402e93:	eb da                	jmp    402e6f <driver_post+0x1f>
  402e95:	48 83 ec 08          	sub    $0x8,%rsp
  402e99:	41 51                	push   %r9
  402e9b:	49 89 c9             	mov    %rcx,%r9
  402e9e:	49 89 d0             	mov    %rdx,%r8
  402ea1:	48 89 f9             	mov    %rdi,%rcx
  402ea4:	48 89 f2             	mov    %rsi,%rdx
  402ea7:	be 9a 3c 00 00       	mov    $0x3c9a,%esi
  402eac:	48 8d 3d 66 08 00 00 	lea    0x866(%rip),%rdi        # 403719 <trans_char+0xc9>
  402eb3:	e8 41 f6 ff ff       	callq  4024f9 <submitr>
  402eb8:	48 83 c4 10          	add    $0x10,%rsp
  402ebc:	eb b1                	jmp    402e6f <driver_post+0x1f>

0000000000402ebe <check>:
  402ebe:	89 f8                	mov    %edi,%eax
  402ec0:	c1 e8 1c             	shr    $0x1c,%eax
  402ec3:	74 1d                	je     402ee2 <check+0x24>
  402ec5:	b9 00 00 00 00       	mov    $0x0,%ecx
  402eca:	83 f9 1f             	cmp    $0x1f,%ecx
  402ecd:	7f 0d                	jg     402edc <check+0x1e>
  402ecf:	89 f8                	mov    %edi,%eax
  402ed1:	d3 e8                	shr    %cl,%eax
  402ed3:	3c 0a                	cmp    $0xa,%al
  402ed5:	74 11                	je     402ee8 <check+0x2a>
  402ed7:	83 c1 08             	add    $0x8,%ecx
  402eda:	eb ee                	jmp    402eca <check+0xc>
  402edc:	b8 01 00 00 00       	mov    $0x1,%eax
  402ee1:	c3                   	retq   
  402ee2:	b8 00 00 00 00       	mov    $0x0,%eax
  402ee7:	c3                   	retq   
  402ee8:	b8 00 00 00 00       	mov    $0x0,%eax
  402eed:	c3                   	retq   

0000000000402eee <gencookie>:
  402eee:	53                   	push   %rbx
  402eef:	83 c7 01             	add    $0x1,%edi
  402ef2:	e8 59 e1 ff ff       	callq  401050 <srandom@plt>
  402ef7:	e8 74 e2 ff ff       	callq  401170 <random@plt>
  402efc:	48 89 c7             	mov    %rax,%rdi
  402eff:	89 c3                	mov    %eax,%ebx
  402f01:	e8 b8 ff ff ff       	callq  402ebe <check>
  402f06:	85 c0                	test   %eax,%eax
  402f08:	74 ed                	je     402ef7 <gencookie+0x9>
  402f0a:	89 d8                	mov    %ebx,%eax
  402f0c:	5b                   	pop    %rbx
  402f0d:	c3                   	retq   
  402f0e:	66 90                	xchg   %ax,%ax

0000000000402f10 <__libc_csu_init>:
  402f10:	41 57                	push   %r15
  402f12:	4c 8d 3d f7 2e 00 00 	lea    0x2ef7(%rip),%r15        # 405e10 <__frame_dummy_init_array_entry>
  402f19:	41 56                	push   %r14
  402f1b:	49 89 d6             	mov    %rdx,%r14
  402f1e:	41 55                	push   %r13
  402f20:	49 89 f5             	mov    %rsi,%r13
  402f23:	41 54                	push   %r12
  402f25:	41 89 fc             	mov    %edi,%r12d
  402f28:	55                   	push   %rbp
  402f29:	48 8d 2d e8 2e 00 00 	lea    0x2ee8(%rip),%rbp        # 405e18 <__do_global_dtors_aux_fini_array_entry>
  402f30:	53                   	push   %rbx
  402f31:	4c 29 fd             	sub    %r15,%rbp
  402f34:	48 83 ec 08          	sub    $0x8,%rsp
  402f38:	e8 c3 e0 ff ff       	callq  401000 <_init>
  402f3d:	48 c1 fd 03          	sar    $0x3,%rbp
  402f41:	74 1b                	je     402f5e <__libc_csu_init+0x4e>
  402f43:	31 db                	xor    %ebx,%ebx
  402f45:	0f 1f 00             	nopl   (%rax)
  402f48:	4c 89 f2             	mov    %r14,%rdx
  402f4b:	4c 89 ee             	mov    %r13,%rsi
  402f4e:	44 89 e7             	mov    %r12d,%edi
  402f51:	41 ff 14 df          	callq  *(%r15,%rbx,8)
  402f55:	48 83 c3 01          	add    $0x1,%rbx
  402f59:	48 39 dd             	cmp    %rbx,%rbp
  402f5c:	75 ea                	jne    402f48 <__libc_csu_init+0x38>
  402f5e:	48 83 c4 08          	add    $0x8,%rsp
  402f62:	5b                   	pop    %rbx
  402f63:	5d                   	pop    %rbp
  402f64:	41 5c                	pop    %r12
  402f66:	41 5d                	pop    %r13
  402f68:	41 5e                	pop    %r14
  402f6a:	41 5f                	pop    %r15
  402f6c:	c3                   	retq   
  402f6d:	0f 1f 00             	nopl   (%rax)

0000000000402f70 <__libc_csu_fini>:
  402f70:	c3                   	retq   

Disassembly of section .fini:

0000000000402f74 <_fini>:
  402f74:	48 83 ec 08          	sub    $0x8,%rsp
  402f78:	48 83 c4 08          	add    $0x8,%rsp
  402f7c:	c3                   	retq   
